
clock01.elf:     file format elf32-avr

Sections:
Idx Name          Size      VMA       LMA       File off  Algn
  0 .data         00000000  00800100  00800100  00001506  2**0
                  CONTENTS, ALLOC, LOAD, DATA
  1 .text         00001492  00000000  00000000  00000074  2**1
                  CONTENTS, ALLOC, LOAD, READONLY, CODE
  2 .bss          0000000c  00800100  00800100  00001506  2**0
                  ALLOC
  3 .comment      00000030  00000000  00000000  00001506  2**0
                  CONTENTS, READONLY
  4 .note.gnu.avr.deviceinfo 00000040  00000000  00000000  00001538  2**2
                  CONTENTS, READONLY
  5 .debug_aranges 00000160  00000000  00000000  00001578  2**0
                  CONTENTS, READONLY, DEBUGGING
  6 .debug_info   00001d26  00000000  00000000  000016d8  2**0
                  CONTENTS, READONLY, DEBUGGING
  7 .debug_abbrev 00000738  00000000  00000000  000033fe  2**0
                  CONTENTS, READONLY, DEBUGGING
  8 .debug_line   00000923  00000000  00000000  00003b36  2**0
                  CONTENTS, READONLY, DEBUGGING
  9 .debug_frame  000005cc  00000000  00000000  0000445c  2**2
                  CONTENTS, READONLY, DEBUGGING
 10 .debug_str    0000097a  00000000  00000000  00004a28  2**0
                  CONTENTS, READONLY, DEBUGGING
 11 .debug_loc    00001c6b  00000000  00000000  000053a2  2**0
                  CONTENTS, READONLY, DEBUGGING
 12 .debug_ranges 000001a8  00000000  00000000  0000700d  2**0
                  CONTENTS, READONLY, DEBUGGING

Disassembly of section .text:

00000000 <__vectors>:
       0:	0c 94 aa 00 	jmp	0x154	; 0x154 <__ctors_end>
       4:	0c 94 c7 00 	jmp	0x18e	; 0x18e <__bad_interrupt>
       8:	0c 94 c7 00 	jmp	0x18e	; 0x18e <__bad_interrupt>
       c:	0c 94 c7 00 	jmp	0x18e	; 0x18e <__bad_interrupt>
      10:	0c 94 c7 00 	jmp	0x18e	; 0x18e <__bad_interrupt>
      14:	0c 94 c7 00 	jmp	0x18e	; 0x18e <__bad_interrupt>
      18:	0c 94 c7 00 	jmp	0x18e	; 0x18e <__bad_interrupt>
      1c:	0c 94 c7 00 	jmp	0x18e	; 0x18e <__bad_interrupt>
      20:	0c 94 c7 00 	jmp	0x18e	; 0x18e <__bad_interrupt>
      24:	0c 94 c7 00 	jmp	0x18e	; 0x18e <__bad_interrupt>
      28:	0c 94 c7 00 	jmp	0x18e	; 0x18e <__bad_interrupt>
      2c:	0c 94 c7 00 	jmp	0x18e	; 0x18e <__bad_interrupt>
      30:	0c 94 c7 00 	jmp	0x18e	; 0x18e <__bad_interrupt>
      34:	0c 94 c7 00 	jmp	0x18e	; 0x18e <__bad_interrupt>
      38:	0c 94 c7 00 	jmp	0x18e	; 0x18e <__bad_interrupt>
      3c:	0c 94 c7 00 	jmp	0x18e	; 0x18e <__bad_interrupt>
      40:	0c 94 31 02 	jmp	0x462	; 0x462 <__vector_16>
      44:	0c 94 c7 00 	jmp	0x18e	; 0x18e <__bad_interrupt>
      48:	0c 94 c7 00 	jmp	0x18e	; 0x18e <__bad_interrupt>
      4c:	0c 94 c7 00 	jmp	0x18e	; 0x18e <__bad_interrupt>
      50:	0c 94 c7 00 	jmp	0x18e	; 0x18e <__bad_interrupt>
      54:	0c 94 14 02 	jmp	0x428	; 0x428 <__vector_21>
      58:	0c 94 c7 00 	jmp	0x18e	; 0x18e <__bad_interrupt>
      5c:	0c 94 c7 00 	jmp	0x18e	; 0x18e <__bad_interrupt>
      60:	0c 94 c7 00 	jmp	0x18e	; 0x18e <__bad_interrupt>
      64:	0c 94 c7 00 	jmp	0x18e	; 0x18e <__bad_interrupt>
      68:	1d 08       	sbc	r1, r13
      6a:	25 08       	sbc	r2, r5
      6c:	29 08       	sbc	r2, r9
      6e:	2f 08       	sbc	r2, r15
      70:	34 08       	sbc	r3, r4
      72:	39 08       	sbc	r3, r9
      74:	40 08       	sbc	r4, r0
      76:	48 08       	sbc	r4, r8
      78:	4f 08       	sbc	r4, r15
      7a:	57 08       	sbc	r5, r7
      7c:	65 08       	sbc	r6, r5
      7e:	65 08       	sbc	r6, r5
      80:	65 08       	sbc	r6, r5
      82:	65 08       	sbc	r6, r5
      84:	65 08       	sbc	r6, r5
      86:	65 08       	sbc	r6, r5
      88:	65 08       	sbc	r6, r5
      8a:	65 08       	sbc	r6, r5
      8c:	65 08       	sbc	r6, r5
      8e:	65 08       	sbc	r6, r5
      90:	65 08       	sbc	r6, r5
      92:	65 08       	sbc	r6, r5
      94:	65 08       	sbc	r6, r5
      96:	65 08       	sbc	r6, r5
      98:	65 08       	sbc	r6, r5
      9a:	65 08       	sbc	r6, r5
      9c:	65 08       	sbc	r6, r5
      9e:	65 08       	sbc	r6, r5
      a0:	65 08       	sbc	r6, r5
      a2:	65 08       	sbc	r6, r5
      a4:	65 08       	sbc	r6, r5
      a6:	65 08       	sbc	r6, r5
      a8:	65 08       	sbc	r6, r5
      aa:	65 08       	sbc	r6, r5
      ac:	65 08       	sbc	r6, r5
      ae:	65 08       	sbc	r6, r5
      b0:	65 08       	sbc	r6, r5
      b2:	65 08       	sbc	r6, r5
      b4:	65 08       	sbc	r6, r5
      b6:	65 08       	sbc	r6, r5
      b8:	65 08       	sbc	r6, r5
      ba:	65 08       	sbc	r6, r5
      bc:	65 08       	sbc	r6, r5
      be:	65 08       	sbc	r6, r5
      c0:	65 08       	sbc	r6, r5
      c2:	63 08       	sbc	r6, r3
      c4:	65 08       	sbc	r6, r5
      c6:	65 08       	sbc	r6, r5
      c8:	65 08       	sbc	r6, r5
      ca:	65 08       	sbc	r6, r5
      cc:	65 08       	sbc	r6, r5
      ce:	65 08       	sbc	r6, r5
      d0:	65 08       	sbc	r6, r5
      d2:	65 08       	sbc	r6, r5
      d4:	65 08       	sbc	r6, r5
      d6:	65 08       	sbc	r6, r5
      d8:	65 08       	sbc	r6, r5
      da:	65 08       	sbc	r6, r5
      dc:	65 08       	sbc	r6, r5
      de:	65 08       	sbc	r6, r5
      e0:	65 08       	sbc	r6, r5
      e2:	65 08       	sbc	r6, r5
      e4:	65 08       	sbc	r6, r5
      e6:	65 08       	sbc	r6, r5
      e8:	65 08       	sbc	r6, r5
      ea:	65 08       	sbc	r6, r5
      ec:	65 08       	sbc	r6, r5
      ee:	65 08       	sbc	r6, r5
      f0:	65 08       	sbc	r6, r5
      f2:	65 08       	sbc	r6, r5
      f4:	65 08       	sbc	r6, r5
      f6:	65 08       	sbc	r6, r5
      f8:	65 08       	sbc	r6, r5
      fa:	65 08       	sbc	r6, r5
      fc:	65 08       	sbc	r6, r5
      fe:	65 08       	sbc	r6, r5
     100:	65 08       	sbc	r6, r5
     102:	65 08       	sbc	r6, r5
     104:	65 08       	sbc	r6, r5
     106:	65 08       	sbc	r6, r5
     108:	65 08       	sbc	r6, r5
     10a:	65 08       	sbc	r6, r5
     10c:	65 08       	sbc	r6, r5
     10e:	65 08       	sbc	r6, r5
     110:	65 08       	sbc	r6, r5
     112:	65 08       	sbc	r6, r5
     114:	65 08       	sbc	r6, r5
     116:	65 08       	sbc	r6, r5
     118:	65 08       	sbc	r6, r5
     11a:	65 08       	sbc	r6, r5
     11c:	65 08       	sbc	r6, r5
     11e:	65 08       	sbc	r6, r5
     120:	65 08       	sbc	r6, r5
     122:	65 08       	sbc	r6, r5
     124:	65 08       	sbc	r6, r5
     126:	65 08       	sbc	r6, r5
     128:	65 08       	sbc	r6, r5
     12a:	65 08       	sbc	r6, r5
     12c:	65 08       	sbc	r6, r5
     12e:	65 08       	sbc	r6, r5
     130:	65 08       	sbc	r6, r5
     132:	65 08       	sbc	r6, r5
     134:	65 08       	sbc	r6, r5
     136:	65 08       	sbc	r6, r5
     138:	65 08       	sbc	r6, r5
     13a:	65 08       	sbc	r6, r5
     13c:	65 08       	sbc	r6, r5
     13e:	65 08       	sbc	r6, r5
     140:	65 08       	sbc	r6, r5
     142:	65 08       	sbc	r6, r5
     144:	65 08       	sbc	r6, r5
     146:	65 08       	sbc	r6, r5
     148:	65 08       	sbc	r6, r5
     14a:	65 08       	sbc	r6, r5
     14c:	65 08       	sbc	r6, r5
     14e:	65 08       	sbc	r6, r5
     150:	65 08       	sbc	r6, r5
     152:	5e 08       	sbc	r5, r14

00000154 <__ctors_end>:
     154:	11 24       	eor	r1, r1
     156:	1f be       	out	0x3f, r1	; 63
     158:	cf ef       	ldi	r28, 0xFF	; 255
     15a:	d8 e0       	ldi	r29, 0x08	; 8
     15c:	de bf       	out	0x3e, r29	; 62
     15e:	cd bf       	out	0x3d, r28	; 61

00000160 <__do_copy_data>:
     160:	11 e0       	ldi	r17, 0x01	; 1
     162:	a0 e0       	ldi	r26, 0x00	; 0
     164:	b1 e0       	ldi	r27, 0x01	; 1
     166:	e2 e9       	ldi	r30, 0x92	; 146
     168:	f4 e1       	ldi	r31, 0x14	; 20
     16a:	02 c0       	rjmp	.+4      	; 0x170 <__do_copy_data+0x10>
     16c:	05 90       	lpm	r0, Z+
     16e:	0d 92       	st	X+, r0
     170:	a0 30       	cpi	r26, 0x00	; 0
     172:	b1 07       	cpc	r27, r17
     174:	d9 f7       	brne	.-10     	; 0x16c <__do_copy_data+0xc>

00000176 <__do_clear_bss>:
     176:	21 e0       	ldi	r18, 0x01	; 1
     178:	a0 e0       	ldi	r26, 0x00	; 0
     17a:	b1 e0       	ldi	r27, 0x01	; 1
     17c:	01 c0       	rjmp	.+2      	; 0x180 <.do_clear_bss_start>

0000017e <.do_clear_bss_loop>:
     17e:	1d 92       	st	X+, r1

00000180 <.do_clear_bss_start>:
     180:	ac 30       	cpi	r26, 0x0C	; 12
     182:	b2 07       	cpc	r27, r18
     184:	e1 f7       	brne	.-8      	; 0x17e <.do_clear_bss_loop>
     186:	0e 94 0c 06 	call	0xc18	; 0xc18 <main>
     18a:	0c 94 47 0a 	jmp	0x148e	; 0x148e <_exit>

0000018e <__bad_interrupt>:
     18e:	0c 94 00 00 	jmp	0	; 0x0 <__vectors>

00000192 <_Z5resetPVhS0_h>:
		
    }
}
*/
void reset(volatile uint8_t *port,volatile uint8_t * ddr,uint8_t pin)
{
     192:	dc 01       	movw	r26, r24
     194:	fb 01       	movw	r30, r22
	*ddr|=(1<<pin);
     196:	80 81       	ld	r24, Z
     198:	21 e0       	ldi	r18, 0x01	; 1
     19a:	30 e0       	ldi	r19, 0x00	; 0
     19c:	02 c0       	rjmp	.+4      	; 0x1a2 <_Z5resetPVhS0_h+0x10>
     19e:	22 0f       	add	r18, r18
     1a0:	33 1f       	adc	r19, r19
     1a2:	4a 95       	dec	r20
     1a4:	e2 f7       	brpl	.-8      	; 0x19e <_Z5resetPVhS0_h+0xc>
     1a6:	82 2b       	or	r24, r18
     1a8:	80 83       	st	Z, r24
	*port&=~(1<<pin);//pin off
     1aa:	9c 91       	ld	r25, X
     1ac:	32 2f       	mov	r19, r18
     1ae:	30 95       	com	r19
     1b0:	93 23       	and	r25, r19
     1b2:	9c 93       	st	X, r25
	#else
		//round up by default
		__ticks_dc = (uint32_t)(ceil(fabs(__tmp)));
	#endif

	__builtin_avr_delay_cycles(__ticks_dc);
     1b4:	87 ee       	ldi	r24, 0xE7	; 231
     1b6:	93 e0       	ldi	r25, 0x03	; 3
     1b8:	01 97       	sbiw	r24, 0x01	; 1
     1ba:	f1 f7       	brne	.-4      	; 0x1b8 <_Z5resetPVhS0_h+0x26>
     1bc:	00 c0       	rjmp	.+0      	; 0x1be <_Z5resetPVhS0_h+0x2c>
     1be:	00 00       	nop
	_delay_us(500);
	*port|=1<<pin;//pint on
     1c0:	8c 91       	ld	r24, X
     1c2:	28 2b       	or	r18, r24
     1c4:	2c 93       	st	X, r18
	*ddr&=~(1<<pin);
     1c6:	80 81       	ld	r24, Z
     1c8:	83 23       	and	r24, r19
     1ca:	80 83       	st	Z, r24
	#else
		//round up by default
		__ticks_dc = (uint32_t)(ceil(fabs(__tmp)));
	#endif

	__builtin_avr_delay_cycles(__ticks_dc);
     1cc:	8f ec       	ldi	r24, 0xCF	; 207
     1ce:	97 e0       	ldi	r25, 0x07	; 7
     1d0:	01 97       	sbiw	r24, 0x01	; 1
     1d2:	f1 f7       	brne	.-4      	; 0x1d0 <_Z5resetPVhS0_h+0x3e>
     1d4:	00 c0       	rjmp	.+0      	; 0x1d6 <_Z5resetPVhS0_h+0x44>
     1d6:	00 00       	nop
     1d8:	08 95       	ret

000001da <_Z11SendToPort1PVhS0_h>:
	_delay_ms(1);
	
	
}
void SendToPort1(volatile uint8_t *port,volatile uint8_t *ddr,uint8_t pin)
{	cli();
     1da:	dc 01       	movw	r26, r24
     1dc:	fb 01       	movw	r30, r22
     1de:	f8 94       	cli
	*ddr|=(1<<pin);
     1e0:	90 81       	ld	r25, Z
     1e2:	21 e0       	ldi	r18, 0x01	; 1
     1e4:	30 e0       	ldi	r19, 0x00	; 0
     1e6:	02 c0       	rjmp	.+4      	; 0x1ec <_Z11SendToPort1PVhS0_h+0x12>
     1e8:	22 0f       	add	r18, r18
     1ea:	33 1f       	adc	r19, r19
     1ec:	4a 95       	dec	r20
     1ee:	e2 f7       	brpl	.-8      	; 0x1e8 <_Z11SendToPort1PVhS0_h+0xe>
     1f0:	92 2b       	or	r25, r18
     1f2:	90 83       	st	Z, r25
	*port&=~(1<<pin);//pin off
     1f4:	9c 91       	ld	r25, X
     1f6:	20 95       	com	r18
     1f8:	92 23       	and	r25, r18
     1fa:	9c 93       	st	X, r25
	#else
		//round up by default
		__ticks_dc = (uint32_t)(ceil(fabs(__tmp)));
	#endif

	__builtin_avr_delay_cycles(__ticks_dc);
     1fc:	8a e0       	ldi	r24, 0x0A	; 10
     1fe:	8a 95       	dec	r24
     200:	f1 f7       	brne	.-4      	; 0x1fe <_Z11SendToPort1PVhS0_h+0x24>
     202:	00 c0       	rjmp	.+0      	; 0x204 <_Z11SendToPort1PVhS0_h+0x2a>
	_delay_us(4);
	*ddr&=~(1<<pin);
     204:	80 81       	ld	r24, Z
     206:	28 23       	and	r18, r24
     208:	20 83       	st	Z, r18
     20a:	8a ec       	ldi	r24, 0xCA	; 202
     20c:	8a 95       	dec	r24
     20e:	f1 f7       	brne	.-4      	; 0x20c <_Z11SendToPort1PVhS0_h+0x32>
     210:	00 c0       	rjmp	.+0      	; 0x212 <_Z11SendToPort1PVhS0_h+0x38>
     212:	08 95       	ret

00000214 <_Z11SendToPort0PVhS0_h>:
	//*port|=1<<pin;//pint on
	//sei();
	_delay_us(76);
}
void SendToPort0(volatile uint8_t *port,volatile uint8_t *ddr,uint8_t pin)
{	cli();
     214:	dc 01       	movw	r26, r24
     216:	fb 01       	movw	r30, r22
     218:	f8 94       	cli
	*ddr|=(1<<pin);
     21a:	90 81       	ld	r25, Z
     21c:	21 e0       	ldi	r18, 0x01	; 1
     21e:	30 e0       	ldi	r19, 0x00	; 0
     220:	02 c0       	rjmp	.+4      	; 0x226 <_Z11SendToPort0PVhS0_h+0x12>
     222:	22 0f       	add	r18, r18
     224:	33 1f       	adc	r19, r19
     226:	4a 95       	dec	r20
     228:	e2 f7       	brpl	.-8      	; 0x222 <_Z11SendToPort0PVhS0_h+0xe>
     22a:	92 2b       	or	r25, r18
     22c:	90 83       	st	Z, r25
	*port&=~(1<<pin);//pin off
     22e:	9c 91       	ld	r25, X
     230:	20 95       	com	r18
     232:	92 23       	and	r25, r18
     234:	9c 93       	st	X, r25
     236:	8a ea       	ldi	r24, 0xAA	; 170
     238:	8a 95       	dec	r24
     23a:	f1 f7       	brne	.-4      	; 0x238 <_Z11SendToPort0PVhS0_h+0x24>
     23c:	00 c0       	rjmp	.+0      	; 0x23e <_Z11SendToPort0PVhS0_h+0x2a>
	_delay_us(64);
	*ddr&=~(1<<pin);
     23e:	80 81       	ld	r24, Z
     240:	28 23       	and	r18, r24
     242:	20 83       	st	Z, r18
     244:	8a e2       	ldi	r24, 0x2A	; 42
     246:	8a 95       	dec	r24
     248:	f1 f7       	brne	.-4      	; 0x246 <_Z11SendToPort0PVhS0_h+0x32>
     24a:	00 c0       	rjmp	.+0      	; 0x24c <_Z11SendToPort0PVhS0_h+0x38>
     24c:	08 95       	ret

0000024e <_Z14SendByteToPortPVhS0_hh>:
	_delay_us(16);
	//sei();
}
	void SendByteToPort(volatile uint8_t *port,volatile uint8_t *ddr,uint8_t pin,uint8_t byte)
	{	int i; int 	mask=1;
     24e:	cf 92       	push	r12
     250:	df 92       	push	r13
     252:	ef 92       	push	r14
     254:	ff 92       	push	r15
     256:	0f 93       	push	r16
     258:	1f 93       	push	r17
     25a:	cf 93       	push	r28
     25c:	df 93       	push	r29
     25e:	6c 01       	movw	r12, r24
     260:	7b 01       	movw	r14, r22
     262:	04 2f       	mov	r16, r20
     264:	12 2f       	mov	r17, r18
     266:	c8 e0       	ldi	r28, 0x08	; 8
     268:	d0 e0       	ldi	r29, 0x00	; 0
		
		for (i=0;i<8;i++)
		{	if (byte&mask)
     26a:	10 ff       	sbrs	r17, 0
     26c:	06 c0       	rjmp	.+12     	; 0x27a <_Z14SendByteToPortPVhS0_hh+0x2c>
			SendToPort1(port,ddr,pin);
     26e:	40 2f       	mov	r20, r16
     270:	b7 01       	movw	r22, r14
     272:	c6 01       	movw	r24, r12
     274:	0e 94 ed 00 	call	0x1da	; 0x1da <_Z11SendToPort1PVhS0_h>
     278:	05 c0       	rjmp	.+10     	; 0x284 <_Z14SendByteToPortPVhS0_hh+0x36>
			else SendToPort0(port,ddr,pin);
     27a:	40 2f       	mov	r20, r16
     27c:	b7 01       	movw	r22, r14
     27e:	c6 01       	movw	r24, r12
     280:	0e 94 0a 01 	call	0x214	; 0x214 <_Z11SendToPort0PVhS0_h>
			byte>>=1;
     284:	16 95       	lsr	r17
     286:	21 97       	sbiw	r28, 0x01	; 1
	//sei();
}
	void SendByteToPort(volatile uint8_t *port,volatile uint8_t *ddr,uint8_t pin,uint8_t byte)
	{	int i; int 	mask=1;
		
		for (i=0;i<8;i++)
     288:	81 f7       	brne	.-32     	; 0x26a <_Z14SendByteToPortPVhS0_hh+0x1c>
		
		}
	
		

	}
     28a:	df 91       	pop	r29
     28c:	cf 91       	pop	r28
     28e:	1f 91       	pop	r17
     290:	0f 91       	pop	r16
     292:	ff 90       	pop	r15
     294:	ef 90       	pop	r14
     296:	df 90       	pop	r13
     298:	cf 90       	pop	r12
     29a:	08 95       	ret

0000029c <_Z17ReadBytesFromPortPVhS0_S0_hPhh>:
	void ReadBytesFromPort(volatile uint8_t *port,volatile uint8_t *ddr,volatile uint8_t *port_pin,uint8_t pin,uint8_t *bytes,uint8_t number_of_bytes)
	{
     29c:	4f 92       	push	r4
     29e:	5f 92       	push	r5
     2a0:	7f 92       	push	r7
     2a2:	8f 92       	push	r8
     2a4:	9f 92       	push	r9
     2a6:	af 92       	push	r10
     2a8:	bf 92       	push	r11
     2aa:	cf 92       	push	r12
     2ac:	df 92       	push	r13
     2ae:	ef 92       	push	r14
     2b0:	ff 92       	push	r15
     2b2:	0f 93       	push	r16
     2b4:	1f 93       	push	r17
     2b6:	cf 93       	push	r28
     2b8:	df 93       	push	r29
     2ba:	db 01       	movw	r26, r22
		int i=0;//counter of bytes
		int j=0;//counter of bits
		cli();
     2bc:	f8 94       	cli
		for (i=0;i<number_of_bytes;i++)
     2be:	ee 20       	and	r14, r14
     2c0:	09 f4       	brne	.+2      	; 0x2c4 <_Z17ReadBytesFromPortPVhS0_S0_hPhh+0x28>
     2c2:	52 c0       	rjmp	.+164    	; 0x368 <_Z17ReadBytesFromPortPVhS0_S0_hPhh+0xcc>
		{	bytes[i]=0;
			for (j=0;j<8;j++)
			{
				*ddr|=(1<<pin);
     2c4:	61 e0       	ldi	r22, 0x01	; 1
     2c6:	70 e0       	ldi	r23, 0x00	; 0
     2c8:	02 2e       	mov	r0, r18
     2ca:	02 c0       	rjmp	.+4      	; 0x2d0 <_Z17ReadBytesFromPortPVhS0_S0_hPhh+0x34>
     2cc:	66 0f       	add	r22, r22
     2ce:	77 1f       	adc	r23, r23
     2d0:	0a 94       	dec	r0
     2d2:	e2 f7       	brpl	.-8      	; 0x2cc <_Z17ReadBytesFromPortPVhS0_S0_hPhh+0x30>
     2d4:	b6 2e       	mov	r11, r22
				*port&=~(1<<pin);//pin off
     2d6:	f6 2e       	mov	r15, r22
     2d8:	f0 94       	com	r15
     2da:	68 01       	movw	r12, r16
     2dc:	48 01       	movw	r8, r16
     2de:	8e 0c       	add	r8, r14
     2e0:	91 1c       	adc	r9, r1
		int i=0;//counter of bytes
		int j=0;//counter of bits
		cli();
		for (i=0;i<number_of_bytes;i++)
		{	bytes[i]=0;
			for (j=0;j<8;j++)
     2e2:	e1 2c       	mov	r14, r1
     2e4:	a1 2c       	mov	r10, r1
				*port&=~(1<<pin);//pin off
				_delay_us(2);//4
				*ddr&=~(1<<pin);
				_delay_us(16);//32
				//bytes[i]|=(*port_pin)&0x80;
				bytes[i]|=((*port_pin)&(1<<pin))<<(7-pin);
     2e6:	07 e0       	ldi	r16, 0x07	; 7
     2e8:	10 e0       	ldi	r17, 0x00	; 0
     2ea:	02 1b       	sub	r16, r18
     2ec:	11 09       	sbc	r17, r1
     2ee:	26 01       	movw	r4, r12
	{
		int i=0;//counter of bytes
		int j=0;//counter of bits
		cli();
		for (i=0;i<number_of_bytes;i++)
		{	bytes[i]=0;
     2f0:	e6 01       	movw	r28, r12
     2f2:	18 82       	st	Y, r1
			for (j=0;j<8;j++)
     2f4:	ee 2d       	mov	r30, r14
     2f6:	fa 2d       	mov	r31, r10
			{
				*ddr|=(1<<pin);
     2f8:	2c 91       	ld	r18, X
     2fa:	2b 29       	or	r18, r11
     2fc:	2c 93       	st	X, r18
				*port&=~(1<<pin);//pin off
     2fe:	ec 01       	movw	r28, r24
     300:	28 81       	ld	r18, Y
     302:	2f 21       	and	r18, r15
     304:	28 83       	st	Y, r18
     306:	d5 e0       	ldi	r29, 0x05	; 5
     308:	da 95       	dec	r29
     30a:	f1 f7       	brne	.-4      	; 0x308 <_Z17ReadBytesFromPortPVhS0_S0_hPhh+0x6c>
     30c:	00 00       	nop
				_delay_us(2);//4
				*ddr&=~(1<<pin);
     30e:	2c 91       	ld	r18, X
     310:	2f 21       	and	r18, r15
     312:	2c 93       	st	X, r18
     314:	2a e2       	ldi	r18, 0x2A	; 42
     316:	2a 95       	dec	r18
     318:	f1 f7       	brne	.-4      	; 0x316 <_Z17ReadBytesFromPortPVhS0_S0_hPhh+0x7a>
     31a:	00 c0       	rjmp	.+0      	; 0x31c <_Z17ReadBytesFromPortPVhS0_S0_hPhh+0x80>
				_delay_us(16);//32
				//bytes[i]|=(*port_pin)&0x80;
				bytes[i]|=((*port_pin)&(1<<pin))<<(7-pin);
     31c:	ea 01       	movw	r28, r20
     31e:	28 81       	ld	r18, Y
     320:	e2 01       	movw	r28, r4
     322:	78 80       	ld	r7, Y
     324:	30 e0       	ldi	r19, 0x00	; 0
     326:	26 23       	and	r18, r22
     328:	37 23       	and	r19, r23
     32a:	00 2e       	mov	r0, r16
     32c:	02 c0       	rjmp	.+4      	; 0x332 <_Z17ReadBytesFromPortPVhS0_S0_hPhh+0x96>
     32e:	22 0f       	add	r18, r18
     330:	33 1f       	adc	r19, r19
     332:	0a 94       	dec	r0
     334:	e2 f7       	brpl	.-8      	; 0x32e <_Z17ReadBytesFromPortPVhS0_S0_hPhh+0x92>
     336:	27 29       	or	r18, r7
				if(j<7) bytes[i]>>=1;
     338:	e7 30       	cpi	r30, 0x07	; 7
     33a:	f1 05       	cpc	r31, r1
     33c:	14 f0       	brlt	.+4      	; 0x342 <_Z17ReadBytesFromPortPVhS0_S0_hPhh+0xa6>
				*port&=~(1<<pin);//pin off
				_delay_us(2);//4
				*ddr&=~(1<<pin);
				_delay_us(16);//32
				//bytes[i]|=(*port_pin)&0x80;
				bytes[i]|=((*port_pin)&(1<<pin))<<(7-pin);
     33e:	28 83       	st	Y, r18
     340:	05 c0       	rjmp	.+10     	; 0x34c <_Z17ReadBytesFromPortPVhS0_S0_hPhh+0xb0>
				if(j<7) bytes[i]>>=1;
     342:	33 27       	eor	r19, r19
     344:	35 95       	asr	r19
     346:	27 95       	ror	r18
     348:	e2 01       	movw	r28, r4
     34a:	28 83       	st	Y, r18
     34c:	d5 e7       	ldi	r29, 0x75	; 117
     34e:	da 95       	dec	r29
     350:	f1 f7       	brne	.-4      	; 0x34e <_Z17ReadBytesFromPortPVhS0_S0_hPhh+0xb2>
     352:	00 00       	nop
		int i=0;//counter of bytes
		int j=0;//counter of bits
		cli();
		for (i=0;i<number_of_bytes;i++)
		{	bytes[i]=0;
			for (j=0;j<8;j++)
     354:	31 96       	adiw	r30, 0x01	; 1
     356:	e8 30       	cpi	r30, 0x08	; 8
     358:	f1 05       	cpc	r31, r1
     35a:	71 f6       	brne	.-100    	; 0x2f8 <_Z17ReadBytesFromPortPVhS0_S0_hPhh+0x5c>
     35c:	ef ef       	ldi	r30, 0xFF	; 255
     35e:	ce 1a       	sub	r12, r30
     360:	de 0a       	sbc	r13, r30
	void ReadBytesFromPort(volatile uint8_t *port,volatile uint8_t *ddr,volatile uint8_t *port_pin,uint8_t pin,uint8_t *bytes,uint8_t number_of_bytes)
	{
		int i=0;//counter of bytes
		int j=0;//counter of bits
		cli();
		for (i=0;i<number_of_bytes;i++)
     362:	c8 14       	cp	r12, r8
     364:	d9 04       	cpc	r13, r9
     366:	19 f6       	brne	.-122    	; 0x2ee <_Z17ReadBytesFromPortPVhS0_S0_hPhh+0x52>
				bytes[i]|=((*port_pin)&(1<<pin))<<(7-pin);
				if(j<7) bytes[i]>>=1;
				_delay_us(44);
			}			
		}
		sei();
     368:	78 94       	sei
	}
     36a:	df 91       	pop	r29
     36c:	cf 91       	pop	r28
     36e:	1f 91       	pop	r17
     370:	0f 91       	pop	r16
     372:	ff 90       	pop	r15
     374:	ef 90       	pop	r14
     376:	df 90       	pop	r13
     378:	cf 90       	pop	r12
     37a:	bf 90       	pop	r11
     37c:	af 90       	pop	r10
     37e:	9f 90       	pop	r9
     380:	8f 90       	pop	r8
     382:	7f 90       	pop	r7
     384:	5f 90       	pop	r5
     386:	4f 90       	pop	r4
     388:	08 95       	ret

0000038a <_Z28ReadTemperature_StartConvertPVhS0_S0_h>:
		
	}
	*/
	
	void ReadTemperature_StartConvert(volatile uint8_t *port,volatile uint8_t *ddr,volatile uint8_t *port_pin,uint8_t pin)
	{
     38a:	ff 92       	push	r15
     38c:	0f 93       	push	r16
     38e:	1f 93       	push	r17
     390:	cf 93       	push	r28
     392:	df 93       	push	r29
     394:	ec 01       	movw	r28, r24
     396:	8b 01       	movw	r16, r22
     398:	f2 2e       	mov	r15, r18
		reset(port,ddr,pin);
     39a:	42 2f       	mov	r20, r18
     39c:	0e 94 c9 00 	call	0x192	; 0x192 <_Z5resetPVhS0_h>
		SendByteToPort(port,ddr,pin,0xCC);//select all devices
     3a0:	2c ec       	ldi	r18, 0xCC	; 204
     3a2:	4f 2d       	mov	r20, r15
     3a4:	b8 01       	movw	r22, r16
     3a6:	ce 01       	movw	r24, r28
     3a8:	0e 94 27 01 	call	0x24e	; 0x24e <_Z14SendByteToPortPVhS0_hh>

		SendByteToPort(port,ddr,pin,0x44);//start convert
     3ac:	24 e4       	ldi	r18, 0x44	; 68
     3ae:	4f 2d       	mov	r20, r15
     3b0:	b8 01       	movw	r22, r16
     3b2:	ce 01       	movw	r24, r28
     3b4:	0e 94 27 01 	call	0x24e	; 0x24e <_Z14SendByteToPortPVhS0_hh>
	}
     3b8:	df 91       	pop	r29
     3ba:	cf 91       	pop	r28
     3bc:	1f 91       	pop	r17
     3be:	0f 91       	pop	r16
     3c0:	ff 90       	pop	r15
     3c2:	08 95       	ret

000003c4 <_Z18ReadTemperatureArrPVhS0_S0_hPh>:


void ReadTemperatureArr(volatile uint8_t *port,volatile uint8_t *ddr,volatile uint8_t *port_pin,uint8_t pin,uint8_t* temperature)
	{
     3c4:	af 92       	push	r10
     3c6:	bf 92       	push	r11
     3c8:	cf 92       	push	r12
     3ca:	df 92       	push	r13
     3cc:	ef 92       	push	r14
     3ce:	ff 92       	push	r15
     3d0:	0f 93       	push	r16
     3d2:	1f 93       	push	r17
     3d4:	cf 93       	push	r28
     3d6:	df 93       	push	r29
     3d8:	ec 01       	movw	r28, r24
     3da:	6b 01       	movw	r12, r22
     3dc:	5a 01       	movw	r10, r20
     3de:	f2 2e       	mov	r15, r18
		
		//uint8_t temperature [9];
		//uint8_t temperature_byte;
	//	uint8_t temperature_byte_l;
	//	uint8_t temperature_sign=0;
		reset(port,ddr,pin);
     3e0:	42 2f       	mov	r20, r18
     3e2:	0e 94 c9 00 	call	0x192	; 0x192 <_Z5resetPVhS0_h>
		SendByteToPort(port,ddr,pin,0xCC);//select all devices
     3e6:	2c ec       	ldi	r18, 0xCC	; 204
     3e8:	4f 2d       	mov	r20, r15
     3ea:	b6 01       	movw	r22, r12
     3ec:	ce 01       	movw	r24, r28
     3ee:	0e 94 27 01 	call	0x24e	; 0x24e <_Z14SendByteToPortPVhS0_hh>
		SendByteToPort(port,ddr,pin,0xbe);//read memory
     3f2:	2e eb       	ldi	r18, 0xBE	; 190
     3f4:	4f 2d       	mov	r20, r15
     3f6:	b6 01       	movw	r22, r12
     3f8:	ce 01       	movw	r24, r28
     3fa:	0e 94 27 01 	call	0x24e	; 0x24e <_Z14SendByteToPortPVhS0_hh>
		ReadBytesFromPort(port,ddr,port_pin,pin,temperature,9);
     3fe:	0f 2e       	mov	r0, r31
     400:	f9 e0       	ldi	r31, 0x09	; 9
     402:	ef 2e       	mov	r14, r31
     404:	f0 2d       	mov	r31, r0
     406:	2f 2d       	mov	r18, r15
     408:	a5 01       	movw	r20, r10
     40a:	b6 01       	movw	r22, r12
     40c:	ce 01       	movw	r24, r28
     40e:	0e 94 4e 01 	call	0x29c	; 0x29c <_Z17ReadBytesFromPortPVhS0_S0_hPhh>
		else if (temperature_byte/100) temperature_to_dispay[3]=1;
		else temperature_to_dispay[3]=0;*/
		
		
		//return temperature;
     412:	df 91       	pop	r29
     414:	cf 91       	pop	r28
     416:	1f 91       	pop	r17
     418:	0f 91       	pop	r16
     41a:	ff 90       	pop	r15
     41c:	ef 90       	pop	r14
     41e:	df 90       	pop	r13
     420:	cf 90       	pop	r12
     422:	bf 90       	pop	r11
     424:	af 90       	pop	r10
     426:	08 95       	ret

00000428 <__vector_21>:
};
volatile bool AdcClass::DataReady;
volatile uint16_t AdcClass::Data;

ISR(ADC_vect)
	{	
     428:	1f 92       	push	r1
     42a:	0f 92       	push	r0
     42c:	0f b6       	in	r0, 0x3f	; 63
     42e:	0f 92       	push	r0
     430:	11 24       	eor	r1, r1
     432:	8f 93       	push	r24
     434:	9f 93       	push	r25
		AdcClass::Data = ADC;
     436:	80 91 78 00 	lds	r24, 0x0078
     43a:	90 91 79 00 	lds	r25, 0x0079
     43e:	90 93 0a 01 	sts	0x010A, r25
     442:	80 93 09 01 	sts	0x0109, r24
		AdcClass::DataReady = true;
     446:	81 e0       	ldi	r24, 0x01	; 1
     448:	80 93 0b 01 	sts	0x010B, r24
     44c:	8a e1       	ldi	r24, 0x1A	; 26
     44e:	8a 95       	dec	r24
     450:	f1 f7       	brne	.-4      	; 0x44e <__vector_21+0x26>
     452:	00 c0       	rjmp	.+0      	; 0x454 <__vector_21+0x2c>
		_delay_us(10);
		//ADCSRA |= (1<<ADSC);
     454:	9f 91       	pop	r25
     456:	8f 91       	pop	r24
     458:	0f 90       	pop	r0
     45a:	0f be       	out	0x3f, r0	; 63
     45c:	0f 90       	pop	r0
     45e:	1f 90       	pop	r1
     460:	18 95       	reti

00000462 <__vector_16>:
		}

    }
}

ISR(TIMER0_OVF_vect){
     462:	1f 92       	push	r1
     464:	0f 92       	push	r0
     466:	0f b6       	in	r0, 0x3f	; 63
     468:	0f 92       	push	r0
     46a:	11 24       	eor	r1, r1
     46c:	2f 93       	push	r18
     46e:	3f 93       	push	r19
     470:	4f 93       	push	r20
     472:	5f 93       	push	r21
     474:	6f 93       	push	r22
     476:	7f 93       	push	r23
     478:	8f 93       	push	r24
     47a:	9f 93       	push	r25
     47c:	af 93       	push	r26
     47e:	bf 93       	push	r27
     480:	ef 93       	push	r30
     482:	ff 93       	push	r31
	static uint8_t iov=0;
	ClrScr();
     484:	0e 94 f1 07 	call	0xfe2	; 0xfe2 <_Z6ClrScrv>
	Display7seg(screen_arr[iov],iov == screen_arr[4]);
     488:	20 91 08 01 	lds	r18, 0x0108
     48c:	90 91 03 01 	lds	r25, 0x0103
     490:	e9 2f       	mov	r30, r25
     492:	f0 e0       	ldi	r31, 0x00	; 0
     494:	ec 5f       	subi	r30, 0xFC	; 252
     496:	fe 4f       	sbci	r31, 0xFE	; 254
     498:	80 81       	ld	r24, Z
     49a:	61 e0       	ldi	r22, 0x01	; 1
     49c:	29 13       	cpse	r18, r25
     49e:	60 e0       	ldi	r22, 0x00	; 0
     4a0:	0e 94 0a 08 	call	0x1014	; 0x1014 <_Z11Display7seghb>
	NextDigit(4-iov);
     4a4:	90 91 03 01 	lds	r25, 0x0103
     4a8:	84 e0       	ldi	r24, 0x04	; 4
     4aa:	89 1b       	sub	r24, r25
     4ac:	0e 94 6a 08 	call	0x10d4	; 0x10d4 <_Z9NextDigith>
	//Display7seg(screen_arr[iov],iov == screen_arr[4]);
	iov += 1;
     4b0:	80 91 03 01 	lds	r24, 0x0103
     4b4:	8f 5f       	subi	r24, 0xFF	; 255
	if(iov > 3) iov=0;
     4b6:	84 30       	cpi	r24, 0x04	; 4
     4b8:	18 f4       	brcc	.+6      	; 0x4c0 <__vector_16+0x5e>
	static uint8_t iov=0;
	ClrScr();
	Display7seg(screen_arr[iov],iov == screen_arr[4]);
	NextDigit(4-iov);
	//Display7seg(screen_arr[iov],iov == screen_arr[4]);
	iov += 1;
     4ba:	80 93 03 01 	sts	0x0103, r24
     4be:	02 c0       	rjmp	.+4      	; 0x4c4 <__vector_16+0x62>
	if(iov > 3) iov=0;
     4c0:	10 92 03 01 	sts	0x0103, r1
}
     4c4:	ff 91       	pop	r31
     4c6:	ef 91       	pop	r30
     4c8:	bf 91       	pop	r27
     4ca:	af 91       	pop	r26
     4cc:	9f 91       	pop	r25
     4ce:	8f 91       	pop	r24
     4d0:	7f 91       	pop	r23
     4d2:	6f 91       	pop	r22
     4d4:	5f 91       	pop	r21
     4d6:	4f 91       	pop	r20
     4d8:	3f 91       	pop	r19
     4da:	2f 91       	pop	r18
     4dc:	0f 90       	pop	r0
     4de:	0f be       	out	0x3f, r0	; 63
     4e0:	0f 90       	pop	r0
     4e2:	1f 90       	pop	r1
     4e4:	18 95       	reti

000004e6 <_Z21EnableTimer0Interruptv>:
volatile void EnableTimer0Interrupt() {
	
	TIMSK0|=1<<TOIE0;
     4e6:	ee e6       	ldi	r30, 0x6E	; 110
     4e8:	f0 e0       	ldi	r31, 0x00	; 0
     4ea:	80 81       	ld	r24, Z
     4ec:	81 60       	ori	r24, 0x01	; 1
     4ee:	80 83       	st	Z, r24
	TCCR0B = 2;//Prescaler
     4f0:	82 e0       	ldi	r24, 0x02	; 2
     4f2:	85 bd       	out	0x25, r24	; 37
     4f4:	08 95       	ret

000004f6 <_Z10keyCheckerv>:
*PORTD4 SETUP
*/	static uint8_t keyStatePrevious = 0;
	static uint16_t times = 0;
	//DDRD &=~(1<<PORTD3|1<<PORTD4); //Change direction to input
	//PORTD |= 1<<PORTD3|1<<PORTD4; //Enable pull-up resistors
	uint8_t keyState = PIND;
     4f6:	89 b1       	in	r24, 0x09	; 9
	 keyState = (~keyState >> 3) & 3;
     4f8:	90 e0       	ldi	r25, 0x00	; 0
     4fa:	80 95       	com	r24
     4fc:	90 95       	com	r25
     4fe:	95 95       	asr	r25
     500:	87 95       	ror	r24
     502:	95 95       	asr	r25
     504:	87 95       	ror	r24
     506:	95 95       	asr	r25
     508:	87 95       	ror	r24
     50a:	83 70       	andi	r24, 0x03	; 3
	if (keyState == keyStatePrevious && keyState) {
     50c:	90 91 02 01 	lds	r25, 0x0102
     510:	89 13       	cpse	r24, r25
     512:	22 c0       	rjmp	.+68     	; 0x558 <_Z10keyCheckerv+0x62>
     514:	88 23       	and	r24, r24
     516:	01 f1       	breq	.+64     	; 0x558 <_Z10keyCheckerv+0x62>
		if (times < 1500) {
     518:	20 91 00 01 	lds	r18, 0x0100
     51c:	30 91 01 01 	lds	r19, 0x0101
     520:	2c 3d       	cpi	r18, 0xDC	; 220
     522:	95 e0       	ldi	r25, 0x05	; 5
     524:	39 07       	cpc	r19, r25
     526:	60 f4       	brcc	.+24     	; 0x540 <_Z10keyCheckerv+0x4a>
			times += 1;
     528:	2f 5f       	subi	r18, 0xFF	; 255
     52a:	3f 4f       	sbci	r19, 0xFF	; 255
     52c:	30 93 01 01 	sts	0x0101, r19
     530:	20 93 00 01 	sts	0x0100, r18
	#else
		//round up by default
		__ticks_dc = (uint32_t)(ceil(fabs(__tmp)));
	#endif

	__builtin_avr_delay_cycles(__ticks_dc);
     534:	ef ec       	ldi	r30, 0xCF	; 207
     536:	f7 e0       	ldi	r31, 0x07	; 7
     538:	31 97       	sbiw	r30, 0x01	; 1
     53a:	f1 f7       	brne	.-4      	; 0x538 <_Z10keyCheckerv+0x42>
     53c:	00 c0       	rjmp	.+0      	; 0x53e <_Z10keyCheckerv+0x48>
     53e:	00 00       	nop
			_delay_ms(1);
		}
		if (times == 10) {
     540:	20 91 00 01 	lds	r18, 0x0100
     544:	30 91 01 01 	lds	r19, 0x0101
     548:	2a 30       	cpi	r18, 0x0A	; 10
     54a:	31 05       	cpc	r19, r1
     54c:	71 f0       	breq	.+28     	; 0x56a <_Z10keyCheckerv+0x74>
			return keyState;
		}
		if (times == 1000) {
     54e:	28 3e       	cpi	r18, 0xE8	; 232
     550:	33 40       	sbci	r19, 0x03	; 3
     552:	51 f0       	breq	.+20     	; 0x568 <_Z10keyCheckerv+0x72>
	else {
		keyStatePrevious = keyState;
		times = 0;
	}

	return 0;
     554:	80 e0       	ldi	r24, 0x00	; 0
     556:	08 95       	ret
		if (times == 1000) {
			return 3;
		}
	}
	else {
		keyStatePrevious = keyState;
     558:	80 93 02 01 	sts	0x0102, r24
		times = 0;
     55c:	10 92 01 01 	sts	0x0101, r1
     560:	10 92 00 01 	sts	0x0100, r1
	}

	return 0;
     564:	80 e0       	ldi	r24, 0x00	; 0
     566:	08 95       	ret
		}
		if (times == 10) {
			return keyState;
		}
		if (times == 1000) {
			return 3;
     568:	83 e0       	ldi	r24, 0x03	; 3
		keyStatePrevious = keyState;
		times = 0;
	}

	return 0;
}
     56a:	08 95       	ret

0000056c <_Z6dsModev>:
		}
	}
	
}

uint8_t dsMode() {
     56c:	2f 92       	push	r2
     56e:	3f 92       	push	r3
     570:	4f 92       	push	r4
     572:	5f 92       	push	r5
     574:	6f 92       	push	r6
     576:	7f 92       	push	r7
     578:	8f 92       	push	r8
     57a:	9f 92       	push	r9
     57c:	af 92       	push	r10
     57e:	bf 92       	push	r11
     580:	cf 92       	push	r12
     582:	df 92       	push	r13
     584:	ef 92       	push	r14
     586:	ff 92       	push	r15
     588:	0f 93       	push	r16
     58a:	1f 93       	push	r17
     58c:	cf 93       	push	r28
     58e:	df 93       	push	r29
     590:	cd b7       	in	r28, 0x3d	; 61
     592:	de b7       	in	r29, 0x3e	; 62
     594:	29 97       	sbiw	r28, 0x09	; 9
     596:	0f b6       	in	r0, 0x3f	; 63
     598:	f8 94       	cli
     59a:	de bf       	out	0x3e, r29	; 62
     59c:	0f be       	out	0x3f, r0	; 63
     59e:	cd bf       	out	0x3d, r28	; 61
	int16_t temper = 0;
	uint8_t temperatureArr[9];

	screen_arr[4] = 1;
     5a0:	e4 e0       	ldi	r30, 0x04	; 4
     5a2:	f1 e0       	ldi	r31, 0x01	; 1
     5a4:	81 e0       	ldi	r24, 0x01	; 1
     5a6:	84 83       	std	Z+4, r24	; 0x04
	screen_arr[3] = '-';
     5a8:	8d e2       	ldi	r24, 0x2D	; 45
     5aa:	83 83       	std	Z+3, r24	; 0x03
	screen_arr[2] = '-';
     5ac:	82 83       	std	Z+2, r24	; 0x02
	screen_arr[1] = '-';
     5ae:	81 83       	std	Z+1, r24	; 0x01
	screen_arr[0] = '-';
     5b0:	80 83       	st	Z, r24
	uint16_t inner_counter = 0;
	uint8_t exit_counter = 0;
     5b2:	51 2c       	mov	r5, r1
	screen_arr[4] = 1;
	screen_arr[3] = '-';
	screen_arr[2] = '-';
	screen_arr[1] = '-';
	screen_arr[0] = '-';
	uint16_t inner_counter = 0;
     5b4:	e1 2c       	mov	r14, r1
     5b6:	f1 2c       	mov	r15, r1
		}
		_delay_ms(1);
		if(inner_counter <=1000)
		inner_counter +=1;
		else {
			inner_counter =0;
     5b8:	31 2c       	mov	r3, r1
     5ba:	41 2c       	mov	r4, r1
			else {
				screen_arr[3] = -1;
			}
					
					
			screen_arr[0] = ((temper & 0x0F)*10)/16;
     5bc:	6f 01       	movw	r12, r30
			if(temper >= 100) {
				screen_arr[3] = temper/100;
				temper %= 100;
			}
			screen_arr[2] = (temper/10)?(temper/10):-1;
			screen_arr[1] = temper%10;
     5be:	0f 2e       	mov	r0, r31
     5c0:	fa e0       	ldi	r31, 0x0A	; 10
     5c2:	af 2e       	mov	r10, r31
     5c4:	b1 2c       	mov	r11, r1
     5c6:	f0 2d       	mov	r31, r0
			temper>>=4;
			if(temper >= 100) {
				screen_arr[3] = temper/100;
				temper %= 100;
			}
			screen_arr[2] = (temper/10)?(temper/10):-1;
     5c8:	22 24       	eor	r2, r2
     5ca:	2a 94       	dec	r2
					
			screen_arr[0] = ((temper & 0x0F)*10)/16;
					
			temper>>=4;
			if(temper >= 100) {
				screen_arr[3] = temper/100;
     5cc:	0f 2e       	mov	r0, r31
     5ce:	f4 e6       	ldi	r31, 0x64	; 100
     5d0:	8f 2e       	mov	r8, r31
     5d2:	91 2c       	mov	r9, r1
     5d4:	f0 2d       	mov	r31, r0
					
					
			if(temper < 0) {
				screen_arr[3] = '-';
				temper *= -1;
				temper += 1;
     5d6:	66 24       	eor	r6, r6
     5d8:	63 94       	inc	r6
     5da:	71 2c       	mov	r7, r1
     5dc:	02 c0       	rjmp	.+4      	; 0x5e2 <_Z6dsModev+0x76>
		}
		_delay_ms(1);
		if(inner_counter <=1000)
		inner_counter +=1;
		else {
			inner_counter =0;
     5de:	e3 2c       	mov	r14, r3
     5e0:	f4 2c       	mov	r15, r4
	screen_arr[1] = '-';
	screen_arr[0] = '-';
	uint16_t inner_counter = 0;
	uint8_t exit_counter = 0;
	while(true){
		if(inner_counter == 0)
     5e2:	e1 14       	cp	r14, r1
     5e4:	f1 04       	cpc	r15, r1
     5e6:	81 f4       	brne	.+32     	; 0x608 <_Z6dsModev+0x9c>
		{
			ReadTemperature_StartConvert(&PORTD,&DDRD,&PIND,PORTD2);
     5e8:	22 e0       	ldi	r18, 0x02	; 2
     5ea:	49 e2       	ldi	r20, 0x29	; 41
     5ec:	50 e0       	ldi	r21, 0x00	; 0
     5ee:	6a e2       	ldi	r22, 0x2A	; 42
     5f0:	70 e0       	ldi	r23, 0x00	; 0
     5f2:	8b e2       	ldi	r24, 0x2B	; 43
     5f4:	90 e0       	ldi	r25, 0x00	; 0
     5f6:	0e 94 c5 01 	call	0x38a	; 0x38a <_Z28ReadTemperature_StartConvertPVhS0_S0_h>
			sei();
     5fa:	78 94       	sei
			screen_arr[2] = (temper/10)?(temper/10):-1;
			screen_arr[1] = temper%10;
		}


		uint8_t key = keyChecker();
     5fc:	0e 94 7b 02 	call	0x4f6	; 0x4f6 <_Z10keyCheckerv>
		if(key) {
			if (key == 1) return 2;
     600:	81 30       	cpi	r24, 0x01	; 1
     602:	09 f0       	breq	.+2      	; 0x606 <_Z6dsModev+0x9a>
     604:	8c c0       	rjmp	.+280    	; 0x71e <_Z6dsModev+0x1b2>
     606:	7e c0       	rjmp	.+252    	; 0x704 <_Z6dsModev+0x198>
		if(inner_counter == 0)
		{
			ReadTemperature_StartConvert(&PORTD,&DDRD,&PIND,PORTD2);
			sei();
		}
		if(inner_counter == 1000)
     608:	88 ee       	ldi	r24, 0xE8	; 232
     60a:	e8 16       	cp	r14, r24
     60c:	83 e0       	ldi	r24, 0x03	; 3
     60e:	f8 06       	cpc	r15, r24
     610:	09 f0       	breq	.+2      	; 0x614 <_Z6dsModev+0xa8>
     612:	5e c0       	rjmp	.+188    	; 0x6d0 <_Z6dsModev+0x164>
		{
			ReadTemperatureArr(&PORTD,&DDRD,&PIND,PIND2,temperatureArr);
     614:	8e 01       	movw	r16, r28
     616:	0f 5f       	subi	r16, 0xFF	; 255
     618:	1f 4f       	sbci	r17, 0xFF	; 255
     61a:	22 e0       	ldi	r18, 0x02	; 2
     61c:	49 e2       	ldi	r20, 0x29	; 41
     61e:	50 e0       	ldi	r21, 0x00	; 0
     620:	6a e2       	ldi	r22, 0x2A	; 42
     622:	70 e0       	ldi	r23, 0x00	; 0
     624:	8b e2       	ldi	r24, 0x2B	; 43
     626:	90 e0       	ldi	r25, 0x00	; 0
     628:	0e 94 e2 01 	call	0x3c4	; 0x3c4 <_Z18ReadTemperatureArrPVhS0_S0_hPh>
			temper = temperatureArr[1];
     62c:	2a 81       	ldd	r18, Y+2	; 0x02
     62e:	30 e0       	ldi	r19, 0x00	; 0
			temper <<= 8;
     630:	32 2f       	mov	r19, r18
     632:	22 27       	eor	r18, r18
			temper |= temperatureArr[0];
     634:	89 81       	ldd	r24, Y+1	; 0x01
     636:	28 2b       	or	r18, r24
					
					
			if(temper < 0) {
     638:	33 23       	and	r19, r19
     63a:	44 f4       	brge	.+16     	; 0x64c <_Z6dsModev+0xe0>
				screen_arr[3] = '-';
     63c:	8d e2       	ldi	r24, 0x2D	; 45
     63e:	f6 01       	movw	r30, r12
     640:	83 83       	std	Z+3, r24	; 0x03
				temper *= -1;
				temper += 1;
     642:	f3 01       	movw	r30, r6
     644:	e2 1b       	sub	r30, r18
     646:	f3 0b       	sbc	r31, r19
     648:	9f 01       	movw	r18, r30
     64a:	02 c0       	rjmp	.+4      	; 0x650 <_Z6dsModev+0xe4>
			}
			else {
				screen_arr[3] = -1;
     64c:	f6 01       	movw	r30, r12
     64e:	23 82       	std	Z+3, r2	; 0x03
			}
					
					
			screen_arr[0] = ((temper & 0x0F)*10)/16;
     650:	c9 01       	movw	r24, r18
     652:	8f 70       	andi	r24, 0x0F	; 15
     654:	99 27       	eor	r25, r25
     656:	ac 01       	movw	r20, r24
     658:	44 0f       	add	r20, r20
     65a:	55 1f       	adc	r21, r21
     65c:	88 0f       	add	r24, r24
     65e:	99 1f       	adc	r25, r25
     660:	88 0f       	add	r24, r24
     662:	99 1f       	adc	r25, r25
     664:	88 0f       	add	r24, r24
     666:	99 1f       	adc	r25, r25
     668:	84 0f       	add	r24, r20
     66a:	95 1f       	adc	r25, r21
     66c:	95 95       	asr	r25
     66e:	87 95       	ror	r24
     670:	95 95       	asr	r25
     672:	87 95       	ror	r24
     674:	95 95       	asr	r25
     676:	87 95       	ror	r24
     678:	95 95       	asr	r25
     67a:	87 95       	ror	r24
     67c:	f6 01       	movw	r30, r12
     67e:	80 83       	st	Z, r24
					
			temper>>=4;
     680:	35 95       	asr	r19
     682:	27 95       	ror	r18
     684:	35 95       	asr	r19
     686:	27 95       	ror	r18
     688:	35 95       	asr	r19
     68a:	27 95       	ror	r18
     68c:	35 95       	asr	r19
     68e:	27 95       	ror	r18
			if(temper >= 100) {
     690:	24 36       	cpi	r18, 0x64	; 100
     692:	31 05       	cpc	r19, r1
     694:	3c f0       	brlt	.+14     	; 0x6a4 <_Z6dsModev+0x138>
				screen_arr[3] = temper/100;
     696:	c9 01       	movw	r24, r18
     698:	b4 01       	movw	r22, r8
     69a:	0e 94 19 0a 	call	0x1432	; 0x1432 <__divmodhi4>
     69e:	63 83       	std	Z+3, r22	; 0x03
				temper %= 100;
     6a0:	28 2f       	mov	r18, r24
     6a2:	39 2f       	mov	r19, r25
			}
			screen_arr[2] = (temper/10)?(temper/10):-1;
     6a4:	c9 01       	movw	r24, r18
     6a6:	09 96       	adiw	r24, 0x09	; 9
     6a8:	43 97       	sbiw	r24, 0x13	; 19
     6aa:	28 f0       	brcs	.+10     	; 0x6b6 <_Z6dsModev+0x14a>
     6ac:	c9 01       	movw	r24, r18
     6ae:	b5 01       	movw	r22, r10
     6b0:	0e 94 19 0a 	call	0x1432	; 0x1432 <__divmodhi4>
     6b4:	01 c0       	rjmp	.+2      	; 0x6b8 <_Z6dsModev+0x14c>
     6b6:	62 2d       	mov	r22, r2
     6b8:	f6 01       	movw	r30, r12
     6ba:	62 83       	std	Z+2, r22	; 0x02
			screen_arr[1] = temper%10;
     6bc:	c9 01       	movw	r24, r18
     6be:	b5 01       	movw	r22, r10
     6c0:	0e 94 19 0a 	call	0x1432	; 0x1432 <__divmodhi4>
     6c4:	81 83       	std	Z+1, r24	; 0x01
		}


		uint8_t key = keyChecker();
     6c6:	0e 94 7b 02 	call	0x4f6	; 0x4f6 <_Z10keyCheckerv>
		if(key) {
			if (key == 1) return 2;
     6ca:	81 30       	cpi	r24, 0x01	; 1
     6cc:	09 f5       	brne	.+66     	; 0x710 <_Z6dsModev+0x1a4>
     6ce:	1c c0       	rjmp	.+56     	; 0x708 <_Z6dsModev+0x19c>
			screen_arr[2] = (temper/10)?(temper/10):-1;
			screen_arr[1] = temper%10;
		}


		uint8_t key = keyChecker();
     6d0:	0e 94 7b 02 	call	0x4f6	; 0x4f6 <_Z10keyCheckerv>
		if(key) {
			if (key == 1) return 2;
     6d4:	81 30       	cpi	r24, 0x01	; 1
     6d6:	d1 f0       	breq	.+52     	; 0x70c <_Z6dsModev+0x1a0>
     6d8:	8f ec       	ldi	r24, 0xCF	; 207
     6da:	97 e0       	ldi	r25, 0x07	; 7
     6dc:	01 97       	sbiw	r24, 0x01	; 1
     6de:	f1 f7       	brne	.-4      	; 0x6dc <_Z6dsModev+0x170>
     6e0:	00 c0       	rjmp	.+0      	; 0x6e2 <_Z6dsModev+0x176>
     6e2:	00 00       	nop
			//if (key == 2) return 3;

		}
		_delay_ms(1);
		if(inner_counter <=1000)
     6e4:	99 ee       	ldi	r25, 0xE9	; 233
     6e6:	e9 16       	cp	r14, r25
     6e8:	93 e0       	ldi	r25, 0x03	; 3
     6ea:	f9 06       	cpc	r15, r25
     6ec:	20 f4       	brcc	.+8      	; 0x6f6 <_Z6dsModev+0x18a>
		inner_counter +=1;
     6ee:	ef ef       	ldi	r30, 0xFF	; 255
     6f0:	ee 1a       	sub	r14, r30
     6f2:	fe 0a       	sbc	r15, r30
     6f4:	76 cf       	rjmp	.-276    	; 0x5e2 <_Z6dsModev+0x76>
		else {
			inner_counter =0;
			exit_counter +=1;
     6f6:	53 94       	inc	r5
			if(exit_counter>7) return 0;
     6f8:	f7 e0       	ldi	r31, 0x07	; 7
     6fa:	f5 15       	cp	r31, r5
     6fc:	08 f0       	brcs	.+2      	; 0x700 <_Z6dsModev+0x194>
     6fe:	6f cf       	rjmp	.-290    	; 0x5de <_Z6dsModev+0x72>
     700:	80 e0       	ldi	r24, 0x00	; 0
     702:	14 c0       	rjmp	.+40     	; 0x72c <_Z6dsModev+0x1c0>
		}


		uint8_t key = keyChecker();
		if(key) {
			if (key == 1) return 2;
     704:	82 e0       	ldi	r24, 0x02	; 2
     706:	12 c0       	rjmp	.+36     	; 0x72c <_Z6dsModev+0x1c0>
     708:	82 e0       	ldi	r24, 0x02	; 2
     70a:	10 c0       	rjmp	.+32     	; 0x72c <_Z6dsModev+0x1c0>
     70c:	82 e0       	ldi	r24, 0x02	; 2
     70e:	0e c0       	rjmp	.+28     	; 0x72c <_Z6dsModev+0x1c0>
     710:	8f ec       	ldi	r24, 0xCF	; 207
     712:	97 e0       	ldi	r25, 0x07	; 7
     714:	01 97       	sbiw	r24, 0x01	; 1
     716:	f1 f7       	brne	.-4      	; 0x714 <_Z6dsModev+0x1a8>
     718:	00 c0       	rjmp	.+0      	; 0x71a <_Z6dsModev+0x1ae>
     71a:	00 00       	nop
     71c:	e8 cf       	rjmp	.-48     	; 0x6ee <_Z6dsModev+0x182>
     71e:	ef ec       	ldi	r30, 0xCF	; 207
     720:	f7 e0       	ldi	r31, 0x07	; 7
     722:	31 97       	sbiw	r30, 0x01	; 1
     724:	f1 f7       	brne	.-4      	; 0x722 <_Z6dsModev+0x1b6>
     726:	00 c0       	rjmp	.+0      	; 0x728 <_Z6dsModev+0x1bc>
     728:	00 00       	nop
     72a:	e1 cf       	rjmp	.-62     	; 0x6ee <_Z6dsModev+0x182>
			inner_counter =0;
			exit_counter +=1;
			if(exit_counter>7) return 0;
		}
	}
}
     72c:	29 96       	adiw	r28, 0x09	; 9
     72e:	0f b6       	in	r0, 0x3f	; 63
     730:	f8 94       	cli
     732:	de bf       	out	0x3e, r29	; 62
     734:	0f be       	out	0x3f, r0	; 63
     736:	cd bf       	out	0x3d, r28	; 61
     738:	df 91       	pop	r29
     73a:	cf 91       	pop	r28
     73c:	1f 91       	pop	r17
     73e:	0f 91       	pop	r16
     740:	ff 90       	pop	r15
     742:	ef 90       	pop	r14
     744:	df 90       	pop	r13
     746:	cf 90       	pop	r12
     748:	bf 90       	pop	r11
     74a:	af 90       	pop	r10
     74c:	9f 90       	pop	r9
     74e:	8f 90       	pop	r8
     750:	7f 90       	pop	r7
     752:	6f 90       	pop	r6
     754:	5f 90       	pop	r5
     756:	4f 90       	pop	r4
     758:	3f 90       	pop	r3
     75a:	2f 90       	pop	r2
     75c:	08 95       	ret

0000075e <_Z7acbModev>:

uint8_t acbMode() {
     75e:	4f 92       	push	r4
     760:	5f 92       	push	r5
     762:	6f 92       	push	r6
     764:	7f 92       	push	r7
     766:	bf 92       	push	r11
     768:	cf 92       	push	r12
     76a:	df 92       	push	r13
     76c:	ef 92       	push	r14
     76e:	ff 92       	push	r15
     770:	0f 93       	push	r16
     772:	1f 93       	push	r17
     774:	cf 93       	push	r28
     776:	df 93       	push	r29
		screen_arr[4] = 1;
     778:	e4 e0       	ldi	r30, 0x04	; 4
     77a:	f1 e0       	ldi	r31, 0x01	; 1
     77c:	81 e0       	ldi	r24, 0x01	; 1
     77e:	84 83       	std	Z+4, r24	; 0x04
		screen_arr[3] = 'u';
     780:	85 e7       	ldi	r24, 0x75	; 117
     782:	83 83       	std	Z+3, r24	; 0x03
		screen_arr[2] = -1;
     784:	8f ef       	ldi	r24, 0xFF	; 255
     786:	82 83       	std	Z+2, r24	; 0x02
		screen_arr[1] = -1;
     788:	81 83       	std	Z+1, r24	; 0x01
		screen_arr[0] = -1;
     78a:	80 83       	st	Z, r24
		ADMUX &=0xF0;
		ADMUX |= NumberOfPin;
	}
	AdcClass()
	{
		Data = 1024;
     78c:	80 e0       	ldi	r24, 0x00	; 0
     78e:	94 e0       	ldi	r25, 0x04	; 4
     790:	90 93 0a 01 	sts	0x010A, r25
     794:	80 93 09 01 	sts	0x0109, r24
		DataReady = false;
     798:	10 92 0b 01 	sts	0x010B, r1
			ADCSRA |= (1<<ADSC);
	}
	// NumberOfPin example PC1 
	void SelectMixer(uint8_t NumberOfPin)	
	{
		ADMUX &=0xF0;
     79c:	ec e7       	ldi	r30, 0x7C	; 124
     79e:	f0 e0       	ldi	r31, 0x00	; 0
     7a0:	80 81       	ld	r24, Z
     7a2:	80 7f       	andi	r24, 0xF0	; 240
     7a4:	80 83       	st	Z, r24
		ADMUX |= NumberOfPin;
     7a6:	80 81       	ld	r24, Z
     7a8:	80 83       	st	Z, r24
	void Init()
	{
			
			
			SelectMixer(PORTC0);
			ADCSRA |=(1<<ADPS2)|(1<<ADPS1)|(1<<ADPS0);
     7aa:	ea e7       	ldi	r30, 0x7A	; 122
     7ac:	f0 e0       	ldi	r31, 0x00	; 0
     7ae:	80 81       	ld	r24, Z
     7b0:	87 60       	ori	r24, 0x07	; 7
     7b2:	80 83       	st	Z, r24
			ADCSRA |=(1<<ADIE);
     7b4:	80 81       	ld	r24, Z
     7b6:	88 60       	ori	r24, 0x08	; 8
     7b8:	80 83       	st	Z, r24
			ADCSRA |=(1<<ADEN);
     7ba:	80 81       	ld	r24, Z
     7bc:	80 68       	ori	r24, 0x80	; 128
     7be:	80 83       	st	Z, r24
			//ADCSRA |=(1<<ADFR);
			ADCSRA |= (1<<ADSC);
     7c0:	80 81       	ld	r24, Z
     7c2:	80 64       	ori	r24, 0x40	; 64
     7c4:	80 83       	st	Z, r24
		AdcClass adcOb;
		adcOb.Init();
		sei();
     7c6:	78 94       	sei
     7c8:	0f 2e       	mov	r0, r31
     7ca:	f9 e5       	ldi	r31, 0x59	; 89
     7cc:	ef 2e       	mov	r14, r31
     7ce:	fb e1       	ldi	r31, 0x1B	; 27
     7d0:	ff 2e       	mov	r15, r31
     7d2:	f0 2d       	mov	r31, r0
	
		{Data = ADC;}
	
	void MesureVoltage(uint8_t NumberOfPin)
	{	//ADMUX |= 0xC0;
		ADMUX &=0xf;
     7d4:	cc e7       	ldi	r28, 0x7C	; 124
     7d6:	d0 e0       	ldi	r29, 0x00	; 0
		Voltage = INFINITY;
	}
	void StartMesurement(uint8_t NumberOfPin)
	{	
		SelectMixer(NumberOfPin);
		ADCSRA |= (1<<ADSC);
     7d8:	0f 2e       	mov	r0, r31
     7da:	fa e7       	ldi	r31, 0x7A	; 122
     7dc:	cf 2e       	mov	r12, r31
     7de:	d1 2c       	mov	r13, r1
     7e0:	f0 2d       	mov	r31, r0
		uint16_t exitCouter = 0;
		while(true){
			adcOb.MesureVoltage(PORTC0);
			screen_arr[2] = (uint8_t)adcOb.Voltage/10;
     7e2:	0f 2e       	mov	r0, r31
     7e4:	fd ec       	ldi	r31, 0xCD	; 205
     7e6:	bf 2e       	mov	r11, r31
     7e8:	f0 2d       	mov	r31, r0
     7ea:	04 e0       	ldi	r16, 0x04	; 4
     7ec:	11 e0       	ldi	r17, 0x01	; 1
	
		{Data = ADC;}
	
	void MesureVoltage(uint8_t NumberOfPin)
	{	//ADMUX |= 0xC0;
		ADMUX &=0xf;
     7ee:	88 81       	ld	r24, Y
     7f0:	8f 70       	andi	r24, 0x0F	; 15
     7f2:	88 83       	st	Y, r24
			ADCSRA |= (1<<ADSC);
	}
	// NumberOfPin example PC1 
	void SelectMixer(uint8_t NumberOfPin)	
	{
		ADMUX &=0xF0;
     7f4:	88 81       	ld	r24, Y
     7f6:	80 7f       	andi	r24, 0xF0	; 240
     7f8:	88 83       	st	Y, r24
		ADMUX |= NumberOfPin;
     7fa:	88 81       	ld	r24, Y
     7fc:	88 83       	st	Y, r24
		Voltage = INFINITY;
	}
	void StartMesurement(uint8_t NumberOfPin)
	{	
		SelectMixer(NumberOfPin);
		ADCSRA |= (1<<ADSC);
     7fe:	f6 01       	movw	r30, r12
     800:	80 81       	ld	r24, Z
     802:	80 64       	ori	r24, 0x40	; 64
     804:	80 83       	st	Z, r24
	void MesureVoltage(uint8_t NumberOfPin)
	{	//ADMUX |= 0xC0;
		ADMUX &=0xf;
		StartMesurement(NumberOfPin);
		//_delay_ms(2);
		while(!DataReady);
     806:	80 91 0b 01 	lds	r24, 0x010B
     80a:	88 23       	and	r24, r24
     80c:	e1 f3       	breq	.-8      	; 0x806 <_Z7acbModev+0xa8>
		Voltage = CalculateVoltage(Data);
     80e:	60 91 09 01 	lds	r22, 0x0109
     812:	70 91 0a 01 	lds	r23, 0x010A
		return (double)Adc_num*22./(1023. - Adc_num);
	}
	double CalculateVoltage(uint16_t Adc_num)
	{
		//return ((double)Adc_num)/400*11.;
		return ((double)Adc_num/18.618);
     816:	80 e0       	ldi	r24, 0x00	; 0
     818:	90 e0       	ldi	r25, 0x00	; 0
     81a:	0e 94 1e 09 	call	0x123c	; 0x123c <__floatunsisf>
     81e:	2a ea       	ldi	r18, 0xAA	; 170
     820:	31 ef       	ldi	r19, 0xF1	; 241
     822:	44 e9       	ldi	r20, 0x94	; 148
     824:	51 e4       	ldi	r21, 0x41	; 65
     826:	0e 94 7d 08 	call	0x10fa	; 0x10fa <__divsf3>
     82a:	2b 01       	movw	r4, r22
     82c:	3c 01       	movw	r6, r24
		ADMUX &=0xf;
		StartMesurement(NumberOfPin);
		//_delay_ms(2);
		while(!DataReady);
		Voltage = CalculateVoltage(Data);
		DataReady = false;
     82e:	10 92 0b 01 	sts	0x010B, r1
     832:	0e 94 ef 08 	call	0x11de	; 0x11de <__fixunssfsi>
     836:	6b 9d       	mul	r22, r11
     838:	81 2d       	mov	r24, r1
     83a:	11 24       	eor	r1, r1
     83c:	86 95       	lsr	r24
     83e:	86 95       	lsr	r24
     840:	86 95       	lsr	r24
     842:	f8 01       	movw	r30, r16
     844:	82 83       	std	Z+2, r24	; 0x02
			screen_arr[1] = (uint8_t)adcOb.Voltage%10;
     846:	88 0f       	add	r24, r24
     848:	98 2f       	mov	r25, r24
     84a:	99 0f       	add	r25, r25
     84c:	99 0f       	add	r25, r25
     84e:	89 0f       	add	r24, r25
     850:	68 1b       	sub	r22, r24
     852:	61 83       	std	Z+1, r22	; 0x01
			screen_arr[0] = ((uint8_t)(adcOb.Voltage*10))%10;
     854:	20 e0       	ldi	r18, 0x00	; 0
     856:	30 e0       	ldi	r19, 0x00	; 0
     858:	40 e2       	ldi	r20, 0x20	; 32
     85a:	51 e4       	ldi	r21, 0x41	; 65
     85c:	c3 01       	movw	r24, r6
     85e:	b2 01       	movw	r22, r4
     860:	0e 94 ac 09 	call	0x1358	; 0x1358 <__mulsf3>
     864:	0e 94 ef 08 	call	0x11de	; 0x11de <__fixunssfsi>
     868:	6b 9d       	mul	r22, r11
     86a:	81 2d       	mov	r24, r1
     86c:	11 24       	eor	r1, r1
     86e:	86 95       	lsr	r24
     870:	86 95       	lsr	r24
     872:	86 95       	lsr	r24
     874:	88 0f       	add	r24, r24
     876:	98 2f       	mov	r25, r24
     878:	99 0f       	add	r25, r25
     87a:	99 0f       	add	r25, r25
     87c:	89 0f       	add	r24, r25
     87e:	68 1b       	sub	r22, r24
     880:	f8 01       	movw	r30, r16
     882:	60 83       	st	Z, r22


			uint8_t key = keyChecker();
     884:	0e 94 7b 02 	call	0x4f6	; 0x4f6 <_Z10keyCheckerv>
			if(key) {
				if (key == 1) return 0;
     888:	81 30       	cpi	r24, 0x01	; 1
     88a:	59 f0       	breq	.+22     	; 0x8a2 <_Z7acbModev+0x144>
     88c:	8f ec       	ldi	r24, 0xCF	; 207
     88e:	97 e0       	ldi	r25, 0x07	; 7
     890:	01 97       	sbiw	r24, 0x01	; 1
     892:	f1 f7       	brne	.-4      	; 0x890 <_Z7acbModev+0x132>
     894:	00 c0       	rjmp	.+0      	; 0x896 <_Z7acbModev+0x138>
     896:	00 00       	nop
     898:	91 e0       	ldi	r25, 0x01	; 1
     89a:	e9 1a       	sub	r14, r25
     89c:	f1 08       	sbc	r15, r1
				//if (key == 2) return 3;

			}
			_delay_ms(1);
			exitCouter += 1;
			if(exitCouter > 7000) return 0;
     89e:	09 f0       	breq	.+2      	; 0x8a2 <_Z7acbModev+0x144>
     8a0:	a6 cf       	rjmp	.-180    	; 0x7ee <_Z7acbModev+0x90>
		}
}
     8a2:	80 e0       	ldi	r24, 0x00	; 0
     8a4:	df 91       	pop	r29
     8a6:	cf 91       	pop	r28
     8a8:	1f 91       	pop	r17
     8aa:	0f 91       	pop	r16
     8ac:	ff 90       	pop	r15
     8ae:	ef 90       	pop	r14
     8b0:	df 90       	pop	r13
     8b2:	cf 90       	pop	r12
     8b4:	bf 90       	pop	r11
     8b6:	7f 90       	pop	r7
     8b8:	6f 90       	pop	r6
     8ba:	5f 90       	pop	r5
     8bc:	4f 90       	pop	r4
     8be:	08 95       	ret

000008c0 <_Z12setupMinutesv>:

uint8_t setupMinutes () {
     8c0:	9f 92       	push	r9
     8c2:	af 92       	push	r10
     8c4:	bf 92       	push	r11
     8c6:	cf 92       	push	r12
     8c8:	df 92       	push	r13
     8ca:	ef 92       	push	r14
     8cc:	ff 92       	push	r15
     8ce:	0f 93       	push	r16
     8d0:	1f 93       	push	r17
     8d2:	cf 93       	push	r28
     8d4:	df 93       	push	r29
	uint8_t minutes = screen_arr[0] + 10 * screen_arr [1];
     8d6:	e4 e0       	ldi	r30, 0x04	; 4
     8d8:	f1 e0       	ldi	r31, 0x01	; 1
     8da:	90 81       	ld	r25, Z
     8dc:	81 81       	ldd	r24, Z+1	; 0x01
     8de:	88 0f       	add	r24, r24
     8e0:	18 2f       	mov	r17, r24
     8e2:	11 0f       	add	r17, r17
     8e4:	11 0f       	add	r17, r17
     8e6:	81 0f       	add	r24, r17
     8e8:	18 2f       	mov	r17, r24
     8ea:	19 0f       	add	r17, r25
	uint16_t blinker = 0;
     8ec:	c0 e0       	ldi	r28, 0x00	; 0
     8ee:	d0 e0       	ldi	r29, 0x00	; 0
	while(true){
		uint8_t key = keyChecker();
		if(key) {
			if (key == 1) {
				minutes += 1;
				minutes %= 60;
     8f0:	0f 2e       	mov	r0, r31
     8f2:	f9 e8       	ldi	r31, 0x89	; 137
     8f4:	9f 2e       	mov	r9, r31
     8f6:	f0 2d       	mov	r31, r0
     8f8:	0f 2e       	mov	r0, r31
     8fa:	fc e3       	ldi	r31, 0x3C	; 60
     8fc:	af 2e       	mov	r10, r31
     8fe:	f0 2d       	mov	r31, r0
		if (blinker > 250) {
			screen_arr [1] = minutes / 10;
			screen_arr [0] = minutes % 10;
		}
		else {
			screen_arr [1] = -1;
     900:	7f 01       	movw	r14, r30
     902:	0f ef       	ldi	r16, 0xFF	; 255
			return 4;
			}

		}
		if (blinker > 250) {
			screen_arr [1] = minutes / 10;
     904:	0f 2e       	mov	r0, r31
     906:	fd ec       	ldi	r31, 0xCD	; 205
     908:	bf 2e       	mov	r11, r31
     90a:	f0 2d       	mov	r31, r0
		}
		if (blinker < 500) {
			blinker += 1;
		}
		else {
			blinker = 0;
     90c:	c1 2c       	mov	r12, r1
     90e:	d1 2c       	mov	r13, r1

uint8_t setupMinutes () {
	uint8_t minutes = screen_arr[0] + 10 * screen_arr [1];
	uint16_t blinker = 0;
	while(true){
		uint8_t key = keyChecker();
     910:	0e 94 7b 02 	call	0x4f6	; 0x4f6 <_Z10keyCheckerv>
		if(key) {
     914:	88 23       	and	r24, r24
     916:	81 f0       	breq	.+32     	; 0x938 <__stack+0x39>
			if (key == 1) {
     918:	81 30       	cpi	r24, 0x01	; 1
     91a:	61 f4       	brne	.+24     	; 0x934 <__stack+0x35>
				minutes += 1;
     91c:	81 0f       	add	r24, r17
				minutes %= 60;
     91e:	89 9d       	mul	r24, r9
     920:	11 2d       	mov	r17, r1
     922:	11 24       	eor	r1, r1
     924:	12 95       	swap	r17
     926:	16 95       	lsr	r17
     928:	17 70       	andi	r17, 0x07	; 7
     92a:	1a 9d       	mul	r17, r10
     92c:	80 19       	sub	r24, r0
     92e:	11 24       	eor	r1, r1
     930:	18 2f       	mov	r17, r24
     932:	02 c0       	rjmp	.+4      	; 0x938 <__stack+0x39>
				
			}
			if (key == 2) {
     934:	82 30       	cpi	r24, 0x02	; 2
     936:	31 f1       	breq	.+76     	; 0x984 <__stack+0x85>
			screen_arr [0] = minutes % 10;
			return 4;
			}

		}
		if (blinker > 250) {
     938:	cb 3f       	cpi	r28, 0xFB	; 251
     93a:	d1 05       	cpc	r29, r1
     93c:	88 f0       	brcs	.+34     	; 0x960 <__stack+0x61>
			screen_arr [1] = minutes / 10;
     93e:	1b 9d       	mul	r17, r11
     940:	91 2d       	mov	r25, r1
     942:	11 24       	eor	r1, r1
     944:	96 95       	lsr	r25
     946:	96 95       	lsr	r25
     948:	96 95       	lsr	r25
     94a:	f7 01       	movw	r30, r14
     94c:	91 83       	std	Z+1, r25	; 0x01
			screen_arr [0] = minutes % 10;
     94e:	99 0f       	add	r25, r25
     950:	89 2f       	mov	r24, r25
     952:	88 0f       	add	r24, r24
     954:	88 0f       	add	r24, r24
     956:	98 0f       	add	r25, r24
     958:	81 2f       	mov	r24, r17
     95a:	89 1b       	sub	r24, r25
     95c:	80 83       	st	Z, r24
     95e:	03 c0       	rjmp	.+6      	; 0x966 <__stack+0x67>
		}
		else {
			screen_arr [1] = -1;
     960:	f7 01       	movw	r30, r14
     962:	01 83       	std	Z+1, r16	; 0x01
			screen_arr [0] = -1;
     964:	00 83       	st	Z, r16
		}
		if (blinker < 500) {
     966:	c4 3f       	cpi	r28, 0xF4	; 244
     968:	f1 e0       	ldi	r31, 0x01	; 1
     96a:	df 07       	cpc	r29, r31
     96c:	10 f4       	brcc	.+4      	; 0x972 <__stack+0x73>
			blinker += 1;
     96e:	21 96       	adiw	r28, 0x01	; 1
     970:	02 c0       	rjmp	.+4      	; 0x976 <__stack+0x77>
		}
		else {
			blinker = 0;
     972:	cc 2d       	mov	r28, r12
     974:	dd 2d       	mov	r29, r13
     976:	ef ec       	ldi	r30, 0xCF	; 207
     978:	f7 e0       	ldi	r31, 0x07	; 7
     97a:	31 97       	sbiw	r30, 0x01	; 1
     97c:	f1 f7       	brne	.-4      	; 0x97a <__stack+0x7b>
     97e:	00 c0       	rjmp	.+0      	; 0x980 <__stack+0x81>
     980:	00 00       	nop
     982:	c6 cf       	rjmp	.-116    	; 0x910 <__stack+0x11>
				minutes += 1;
				minutes %= 60;
				
			}
			if (key == 2) {
			rtcSendMinutes (minutes);
     984:	81 2f       	mov	r24, r17
     986:	0e 94 55 07 	call	0xeaa	; 0xeaa <_Z14rtcSendMinutesh>
			screen_arr [1] = minutes / 10;
     98a:	8d ec       	ldi	r24, 0xCD	; 205
     98c:	18 9f       	mul	r17, r24
     98e:	81 2d       	mov	r24, r1
     990:	11 24       	eor	r1, r1
     992:	86 95       	lsr	r24
     994:	86 95       	lsr	r24
     996:	86 95       	lsr	r24
     998:	e4 e0       	ldi	r30, 0x04	; 4
     99a:	f1 e0       	ldi	r31, 0x01	; 1
     99c:	81 83       	std	Z+1, r24	; 0x01
			screen_arr [0] = minutes % 10;
     99e:	88 0f       	add	r24, r24
     9a0:	98 2f       	mov	r25, r24
     9a2:	99 0f       	add	r25, r25
     9a4:	99 0f       	add	r25, r25
     9a6:	89 0f       	add	r24, r25
     9a8:	18 1b       	sub	r17, r24
     9aa:	10 83       	st	Z, r17
			blinker = 0;
		}
		_delay_ms(1);

	}
}
     9ac:	84 e0       	ldi	r24, 0x04	; 4
     9ae:	df 91       	pop	r29
     9b0:	cf 91       	pop	r28
     9b2:	1f 91       	pop	r17
     9b4:	0f 91       	pop	r16
     9b6:	ff 90       	pop	r15
     9b8:	ef 90       	pop	r14
     9ba:	df 90       	pop	r13
     9bc:	cf 90       	pop	r12
     9be:	bf 90       	pop	r11
     9c0:	af 90       	pop	r10
     9c2:	9f 90       	pop	r9
     9c4:	08 95       	ret

000009c6 <_Z10setupHoursv>:
uint8_t setupHours () {
     9c6:	9f 92       	push	r9
     9c8:	af 92       	push	r10
     9ca:	bf 92       	push	r11
     9cc:	cf 92       	push	r12
     9ce:	df 92       	push	r13
     9d0:	ef 92       	push	r14
     9d2:	ff 92       	push	r15
     9d4:	0f 93       	push	r16
     9d6:	1f 93       	push	r17
     9d8:	cf 93       	push	r28
     9da:	df 93       	push	r29
	uint8_t hours = screen_arr[2] + 10 * screen_arr [3];
     9dc:	e4 e0       	ldi	r30, 0x04	; 4
     9de:	f1 e0       	ldi	r31, 0x01	; 1
     9e0:	92 81       	ldd	r25, Z+2	; 0x02
     9e2:	83 81       	ldd	r24, Z+3	; 0x03
     9e4:	88 0f       	add	r24, r24
     9e6:	18 2f       	mov	r17, r24
     9e8:	11 0f       	add	r17, r17
     9ea:	11 0f       	add	r17, r17
     9ec:	81 0f       	add	r24, r17
     9ee:	18 2f       	mov	r17, r24
     9f0:	19 0f       	add	r17, r25
	uint16_t blinker = 0;
     9f2:	c0 e0       	ldi	r28, 0x00	; 0
     9f4:	d0 e0       	ldi	r29, 0x00	; 0
	while(true){
		uint8_t key = keyChecker();
		if(key) {
			if (key == 1) {
				hours += 1;
				hours %= 24;
     9f6:	0f 2e       	mov	r0, r31
     9f8:	fb ea       	ldi	r31, 0xAB	; 171
     9fa:	9f 2e       	mov	r9, r31
     9fc:	f0 2d       	mov	r31, r0
     9fe:	0f 2e       	mov	r0, r31
     a00:	f8 e1       	ldi	r31, 0x18	; 24
     a02:	af 2e       	mov	r10, r31
     a04:	f0 2d       	mov	r31, r0
		if (blinker > 250) {
			screen_arr [3] = hours / 10;
			screen_arr [2] = hours % 10;
		}
		else {
			screen_arr [3] = -1;
     a06:	7f 01       	movw	r14, r30
     a08:	0f ef       	ldi	r16, 0xFF	; 255
			return 0;
			}

		}
		if (blinker > 250) {
			screen_arr [3] = hours / 10;
     a0a:	0f 2e       	mov	r0, r31
     a0c:	fd ec       	ldi	r31, 0xCD	; 205
     a0e:	bf 2e       	mov	r11, r31
     a10:	f0 2d       	mov	r31, r0
		}
		if (blinker < 500) {
			blinker += 1;
		}
		else {
			blinker = 0;
     a12:	c1 2c       	mov	r12, r1
     a14:	d1 2c       	mov	r13, r1
}
uint8_t setupHours () {
	uint8_t hours = screen_arr[2] + 10 * screen_arr [3];
	uint16_t blinker = 0;
	while(true){
		uint8_t key = keyChecker();
     a16:	0e 94 7b 02 	call	0x4f6	; 0x4f6 <_Z10keyCheckerv>
		if(key) {
     a1a:	88 23       	and	r24, r24
     a1c:	79 f0       	breq	.+30     	; 0xa3c <_Z10setupHoursv+0x76>
			if (key == 1) {
     a1e:	81 30       	cpi	r24, 0x01	; 1
     a20:	59 f4       	brne	.+22     	; 0xa38 <_Z10setupHoursv+0x72>
				hours += 1;
     a22:	81 0f       	add	r24, r17
				hours %= 24;
     a24:	89 9d       	mul	r24, r9
     a26:	11 2d       	mov	r17, r1
     a28:	11 24       	eor	r1, r1
     a2a:	12 95       	swap	r17
     a2c:	1f 70       	andi	r17, 0x0F	; 15
     a2e:	1a 9d       	mul	r17, r10
     a30:	80 19       	sub	r24, r0
     a32:	11 24       	eor	r1, r1
     a34:	18 2f       	mov	r17, r24
     a36:	02 c0       	rjmp	.+4      	; 0xa3c <_Z10setupHoursv+0x76>
				
			}
			if (key == 2) {
     a38:	82 30       	cpi	r24, 0x02	; 2
     a3a:	31 f1       	breq	.+76     	; 0xa88 <_Z10setupHoursv+0xc2>
			rtcSendHours (hours);
			return 0;
			}

		}
		if (blinker > 250) {
     a3c:	cb 3f       	cpi	r28, 0xFB	; 251
     a3e:	d1 05       	cpc	r29, r1
     a40:	88 f0       	brcs	.+34     	; 0xa64 <_Z10setupHoursv+0x9e>
			screen_arr [3] = hours / 10;
     a42:	1b 9d       	mul	r17, r11
     a44:	91 2d       	mov	r25, r1
     a46:	11 24       	eor	r1, r1
     a48:	96 95       	lsr	r25
     a4a:	96 95       	lsr	r25
     a4c:	96 95       	lsr	r25
     a4e:	f7 01       	movw	r30, r14
     a50:	93 83       	std	Z+3, r25	; 0x03
			screen_arr [2] = hours % 10;
     a52:	99 0f       	add	r25, r25
     a54:	89 2f       	mov	r24, r25
     a56:	88 0f       	add	r24, r24
     a58:	88 0f       	add	r24, r24
     a5a:	98 0f       	add	r25, r24
     a5c:	81 2f       	mov	r24, r17
     a5e:	89 1b       	sub	r24, r25
     a60:	82 83       	std	Z+2, r24	; 0x02
     a62:	03 c0       	rjmp	.+6      	; 0xa6a <_Z10setupHoursv+0xa4>
		}
		else {
			screen_arr [3] = -1;
     a64:	f7 01       	movw	r30, r14
     a66:	03 83       	std	Z+3, r16	; 0x03
			screen_arr [2] = -1;
     a68:	02 83       	std	Z+2, r16	; 0x02
		}
		if (blinker < 500) {
     a6a:	c4 3f       	cpi	r28, 0xF4	; 244
     a6c:	f1 e0       	ldi	r31, 0x01	; 1
     a6e:	df 07       	cpc	r29, r31
     a70:	10 f4       	brcc	.+4      	; 0xa76 <_Z10setupHoursv+0xb0>
			blinker += 1;
     a72:	21 96       	adiw	r28, 0x01	; 1
     a74:	02 c0       	rjmp	.+4      	; 0xa7a <_Z10setupHoursv+0xb4>
		}
		else {
			blinker = 0;
     a76:	cc 2d       	mov	r28, r12
     a78:	dd 2d       	mov	r29, r13
     a7a:	ef ec       	ldi	r30, 0xCF	; 207
     a7c:	f7 e0       	ldi	r31, 0x07	; 7
     a7e:	31 97       	sbiw	r30, 0x01	; 1
     a80:	f1 f7       	brne	.-4      	; 0xa7e <_Z10setupHoursv+0xb8>
     a82:	00 c0       	rjmp	.+0      	; 0xa84 <_Z10setupHoursv+0xbe>
     a84:	00 00       	nop
     a86:	c7 cf       	rjmp	.-114    	; 0xa16 <_Z10setupHoursv+0x50>
				hours += 1;
				hours %= 24;
				
			}
			if (key == 2) {
			rtcSendHours (hours);
     a88:	81 2f       	mov	r24, r17
     a8a:	0e 94 a7 07 	call	0xf4e	; 0xf4e <_Z12rtcSendHoursh>
		}
		_delay_ms(1);


	}
}
     a8e:	80 e0       	ldi	r24, 0x00	; 0
     a90:	df 91       	pop	r29
     a92:	cf 91       	pop	r28
     a94:	1f 91       	pop	r17
     a96:	0f 91       	pop	r16
     a98:	ff 90       	pop	r15
     a9a:	ef 90       	pop	r14
     a9c:	df 90       	pop	r13
     a9e:	cf 90       	pop	r12
     aa0:	bf 90       	pop	r11
     aa2:	af 90       	pop	r10
     aa4:	9f 90       	pop	r9
     aa6:	08 95       	ret

00000aa8 <_Z14clrScreenArrayv>:
	}

	return 0;
}
void clrScreenArray () {
	screen_arr[0]=-1;
     aa8:	e4 e0       	ldi	r30, 0x04	; 4
     aaa:	f1 e0       	ldi	r31, 0x01	; 1
     aac:	8f ef       	ldi	r24, 0xFF	; 255
     aae:	80 83       	st	Z, r24
	screen_arr[1]=-1;
     ab0:	81 83       	std	Z+1, r24	; 0x01
	screen_arr[2]=-1;
     ab2:	82 83       	std	Z+2, r24	; 0x02
	screen_arr[3]=-1;
     ab4:	83 83       	std	Z+3, r24	; 0x03
	screen_arr[4]=-1;
     ab6:	84 83       	std	Z+4, r24	; 0x04
     ab8:	08 95       	ret

00000aba <_Z8rtcCyclev>:
volatile void EnableTimer0Interrupt() {
	
	TIMSK0|=1<<TOIE0;
	TCCR0B = 2;//Prescaler
}
uint8_t rtcCycle () {
     aba:	7f 92       	push	r7
     abc:	8f 92       	push	r8
     abe:	9f 92       	push	r9
     ac0:	af 92       	push	r10
     ac2:	bf 92       	push	r11
     ac4:	cf 92       	push	r12
     ac6:	df 92       	push	r13
     ac8:	ef 92       	push	r14
     aca:	ff 92       	push	r15
     acc:	0f 93       	push	r16
     ace:	1f 93       	push	r17
     ad0:	cf 93       	push	r28
     ad2:	df 93       	push	r29
     ad4:	cd b7       	in	r28, 0x3d	; 61
     ad6:	de b7       	in	r29, 0x3e	; 62
     ad8:	63 97       	sbiw	r28, 0x13	; 19
     ada:	0f b6       	in	r0, 0x3f	; 63
     adc:	f8 94       	cli
     ade:	de bf       	out	0x3e, r29	; 62
     ae0:	0f be       	out	0x3f, r0	; 63
     ae2:	cd bf       	out	0x3d, r28	; 61



	uint8_t timeArr[0x13];

	bool powerGoodDelay = true;
     ae4:	bb 24       	eor	r11, r11
     ae6:	b3 94       	inc	r11
	
	TIMSK0|=1<<TOIE0;
	TCCR0B = 2;//Prescaler
}
uint8_t rtcCycle () {
	int8_t startLowEnergy = -1;
     ae8:	0f ef       	ldi	r16, 0xFF	; 255
			}
			else {
				endLowEnergy = (timeArr[1] & 0x0F) + (timeArr[1] >> 4)*10;
				if(startLowEnergy == endLowEnergy) {
					clrScreenArray();
					powerGoodDelay = false;
     aea:	71 2c       	mov	r7, r1
			powerGoodDelay = true;
		}
		else 
		{
			if(startLowEnergy == -1) {
				startLowEnergy = ((timeArr[1] & 0x0F) + (timeArr[1] >> 4)*10 + POWERDELAY)%60;
     aec:	0f 2e       	mov	r0, r31
     aee:	fc e3       	ldi	r31, 0x3C	; 60
     af0:	cf 2e       	mov	r12, r31
     af2:	d1 2c       	mov	r13, r1
     af4:	f0 2d       	mov	r31, r0
		//bool powerGood = false;
		
		const uint8_t POWERDELAY = 5;//Delay Before the lights is off
		readTime(timeArr);
		if (powerGood || powerGoodDelay) {
			screen_arr[0] = timeArr[1] & 0x0F;
     af6:	0f 2e       	mov	r0, r31
     af8:	f4 e0       	ldi	r31, 0x04	; 4
     afa:	ef 2e       	mov	r14, r31
     afc:	f1 e0       	ldi	r31, 0x01	; 1
     afe:	ff 2e       	mov	r15, r31
     b00:	f0 2d       	mov	r31, r0
			screen_arr[1] = timeArr[1] >> 4;
			screen_arr[2] = timeArr[2] & 0x0F;
			screen_arr[3] = timeArr[2] >> 4;
			screen_arr[4] = 2;//Dot Point Position
     b02:	68 94       	set
     b04:	aa 24       	eor	r10, r10
     b06:	a1 f8       	bld	r10, 1
			
		}
		if(powerGood) {
			startLowEnergy = -1;
			endLowEnergy = -1;
			powerGoodDelay = true;
     b08:	88 24       	eor	r8, r8
     b0a:	83 94       	inc	r8
			screen_arr[3] = timeArr[2] >> 4;
			screen_arr[4] = 2;//Dot Point Position
			
		}
		if(powerGood) {
			startLowEnergy = -1;
     b0c:	99 24       	eor	r9, r9
     b0e:	9a 94       	dec	r9

	uint8_t timeArr[0x13];

	bool powerGoodDelay = true;
	while (true) {
		bool powerGood = PIND & 1;
     b10:	19 b1       	in	r17, 0x09	; 9
     b12:	11 70       	andi	r17, 0x01	; 1
		//bool powerGood = false;
		
		const uint8_t POWERDELAY = 5;//Delay Before the lights is off
		readTime(timeArr);
     b14:	ce 01       	movw	r24, r28
     b16:	01 96       	adiw	r24, 0x01	; 1
     b18:	0e 94 e3 06 	call	0xdc6	; 0xdc6 <_Z8readTimePh>
		if (powerGood || powerGoodDelay) {
     b1c:	11 11       	cpse	r17, r1
     b1e:	02 c0       	rjmp	.+4      	; 0xb24 <_Z8rtcCyclev+0x6a>
     b20:	bb 20       	and	r11, r11
     b22:	01 f1       	breq	.+64     	; 0xb64 <_Z8rtcCyclev+0xaa>
			screen_arr[0] = timeArr[1] & 0x0F;
     b24:	8a 81       	ldd	r24, Y+2	; 0x02
     b26:	98 2f       	mov	r25, r24
     b28:	9f 70       	andi	r25, 0x0F	; 15
     b2a:	f7 01       	movw	r30, r14
     b2c:	90 83       	st	Z, r25
			screen_arr[1] = timeArr[1] >> 4;
     b2e:	90 e0       	ldi	r25, 0x00	; 0
     b30:	95 95       	asr	r25
     b32:	87 95       	ror	r24
     b34:	95 95       	asr	r25
     b36:	87 95       	ror	r24
     b38:	95 95       	asr	r25
     b3a:	87 95       	ror	r24
     b3c:	95 95       	asr	r25
     b3e:	87 95       	ror	r24
     b40:	81 83       	std	Z+1, r24	; 0x01
			screen_arr[2] = timeArr[2] & 0x0F;
     b42:	2b 81       	ldd	r18, Y+3	; 0x03
     b44:	82 2f       	mov	r24, r18
     b46:	8f 70       	andi	r24, 0x0F	; 15
     b48:	82 83       	std	Z+2, r24	; 0x02
			screen_arr[3] = timeArr[2] >> 4;
     b4a:	30 e0       	ldi	r19, 0x00	; 0
     b4c:	35 95       	asr	r19
     b4e:	27 95       	ror	r18
     b50:	35 95       	asr	r19
     b52:	27 95       	ror	r18
     b54:	35 95       	asr	r19
     b56:	27 95       	ror	r18
     b58:	35 95       	asr	r19
     b5a:	27 95       	ror	r18
     b5c:	23 83       	std	Z+3, r18	; 0x03
			screen_arr[4] = 2;//Dot Point Position
     b5e:	a4 82       	std	Z+4, r10	; 0x04
			
		}
		if(powerGood) {
     b60:	11 11       	cpse	r17, r1
     b62:	33 c0       	rjmp	.+102    	; 0xbca <_Z8rtcCyclev+0x110>
			endLowEnergy = -1;
			powerGoodDelay = true;
		}
		else 
		{
			if(startLowEnergy == -1) {
     b64:	0f 3f       	cpi	r16, 0xFF	; 255
     b66:	f9 f4       	brne	.+62     	; 0xba6 <_Z8rtcCyclev+0xec>
				startLowEnergy = ((timeArr[1] & 0x0F) + (timeArr[1] >> 4)*10 + POWERDELAY)%60;
     b68:	2a 81       	ldd	r18, Y+2	; 0x02
     b6a:	42 2f       	mov	r20, r18
     b6c:	4f 70       	andi	r20, 0x0F	; 15
     b6e:	30 e0       	ldi	r19, 0x00	; 0
     b70:	35 95       	asr	r19
     b72:	27 95       	ror	r18
     b74:	35 95       	asr	r19
     b76:	27 95       	ror	r18
     b78:	35 95       	asr	r19
     b7a:	27 95       	ror	r18
     b7c:	35 95       	asr	r19
     b7e:	27 95       	ror	r18
     b80:	c9 01       	movw	r24, r18
     b82:	88 0f       	add	r24, r24
     b84:	99 1f       	adc	r25, r25
     b86:	22 0f       	add	r18, r18
     b88:	33 1f       	adc	r19, r19
     b8a:	22 0f       	add	r18, r18
     b8c:	33 1f       	adc	r19, r19
     b8e:	22 0f       	add	r18, r18
     b90:	33 1f       	adc	r19, r19
     b92:	82 0f       	add	r24, r18
     b94:	93 1f       	adc	r25, r19
     b96:	84 0f       	add	r24, r20
     b98:	91 1d       	adc	r25, r1
     b9a:	05 96       	adiw	r24, 0x05	; 5
     b9c:	b6 01       	movw	r22, r12
     b9e:	0e 94 19 0a 	call	0x1432	; 0x1432 <__divmodhi4>
     ba2:	08 2f       	mov	r16, r24
     ba4:	14 c0       	rjmp	.+40     	; 0xbce <_Z8rtcCyclev+0x114>
			}
			else {
				endLowEnergy = (timeArr[1] & 0x0F) + (timeArr[1] >> 4)*10;
     ba6:	8a 81       	ldd	r24, Y+2	; 0x02
     ba8:	98 2f       	mov	r25, r24
     baa:	96 95       	lsr	r25
     bac:	96 95       	lsr	r25
     bae:	96 95       	lsr	r25
     bb0:	9e 71       	andi	r25, 0x1E	; 30
     bb2:	29 2f       	mov	r18, r25
     bb4:	22 0f       	add	r18, r18
     bb6:	22 0f       	add	r18, r18
     bb8:	92 0f       	add	r25, r18
     bba:	8f 70       	andi	r24, 0x0F	; 15
     bbc:	89 0f       	add	r24, r25
				if(startLowEnergy == endLowEnergy) {
     bbe:	08 13       	cpse	r16, r24
     bc0:	06 c0       	rjmp	.+12     	; 0xbce <_Z8rtcCyclev+0x114>
					clrScreenArray();
     bc2:	0e 94 54 05 	call	0xaa8	; 0xaa8 <_Z14clrScreenArrayv>
					powerGoodDelay = false;
     bc6:	b7 2c       	mov	r11, r7
     bc8:	02 c0       	rjmp	.+4      	; 0xbce <_Z8rtcCyclev+0x114>
			
		}
		if(powerGood) {
			startLowEnergy = -1;
			endLowEnergy = -1;
			powerGoodDelay = true;
     bca:	b8 2c       	mov	r11, r8
			screen_arr[3] = timeArr[2] >> 4;
			screen_arr[4] = 2;//Dot Point Position
			
		}
		if(powerGood) {
			startLowEnergy = -1;
     bcc:	09 2d       	mov	r16, r9
			
			}
		
		
		
		uint8_t key = keyChecker();
     bce:	0e 94 7b 02 	call	0x4f6	; 0x4f6 <_Z10keyCheckerv>
		if(key) {
     bd2:	88 23       	and	r24, r24
     bd4:	09 f4       	brne	.+2      	; 0xbd8 <_Z8rtcCyclev+0x11e>
     bd6:	9c cf       	rjmp	.-200    	; 0xb10 <_Z8rtcCyclev+0x56>
			if (key == 1) {
     bd8:	81 30       	cpi	r24, 0x01	; 1
     bda:	29 f4       	brne	.+10     	; 0xbe6 <_Z8rtcCyclev+0x12c>
				if(!powerGoodDelay) {
     bdc:	b1 10       	cpse	r11, r1
     bde:	07 c0       	rjmp	.+14     	; 0xbee <_Z8rtcCyclev+0x134>
					powerGoodDelay = true;
     be0:	b8 2c       	mov	r11, r8
					startLowEnergy = -1;
     be2:	09 2d       	mov	r16, r9
     be4:	95 cf       	rjmp	.-214    	; 0xb10 <_Z8rtcCyclev+0x56>
					endLowEnergy = -1;
				}
				else 
				return 1;
			}
			if (key == 3) {
     be6:	83 30       	cpi	r24, 0x03	; 3
     be8:	09 f0       	breq	.+2      	; 0xbec <_Z8rtcCyclev+0x132>
     bea:	92 cf       	rjmp	.-220    	; 0xb10 <_Z8rtcCyclev+0x56>
     bec:	01 c0       	rjmp	.+2      	; 0xbf0 <_Z8rtcCyclev+0x136>
					powerGoodDelay = true;
					startLowEnergy = -1;
					endLowEnergy = -1;
				}
				else 
				return 1;
     bee:	81 e0       	ldi	r24, 0x01	; 1
			}

		}
	}
	
}
     bf0:	63 96       	adiw	r28, 0x13	; 19
     bf2:	0f b6       	in	r0, 0x3f	; 63
     bf4:	f8 94       	cli
     bf6:	de bf       	out	0x3e, r29	; 62
     bf8:	0f be       	out	0x3f, r0	; 63
     bfa:	cd bf       	out	0x3d, r28	; 61
     bfc:	df 91       	pop	r29
     bfe:	cf 91       	pop	r28
     c00:	1f 91       	pop	r17
     c02:	0f 91       	pop	r16
     c04:	ff 90       	pop	r15
     c06:	ef 90       	pop	r14
     c08:	df 90       	pop	r13
     c0a:	cf 90       	pop	r12
     c0c:	bf 90       	pop	r11
     c0e:	af 90       	pop	r10
     c10:	9f 90       	pop	r9
     c12:	8f 90       	pop	r8
     c14:	7f 90       	pop	r7
     c16:	08 95       	ret

00000c18 <main>:
		current Screen = 2 - accumulator mode;
		current Screen = 3 - setup minutes mode;
		current Screen = 4 - setum hours mode;
	*/

	DDRD &=~(1<<PORTD3|1<<PORTD4); //Change direction to input
     c18:	8a b1       	in	r24, 0x0a	; 10
     c1a:	87 7e       	andi	r24, 0xE7	; 231
     c1c:	8a b9       	out	0x0a, r24	; 10
	PORTD |= 1<<PORTD3|1<<PORTD4; //Enable pull-up resistors
     c1e:	8b b1       	in	r24, 0x0b	; 11
     c20:	88 61       	ori	r24, 0x18	; 24
     c22:	8b b9       	out	0x0b, r24	; 11

	clrScreenArray();//Start from blank screen
     c24:	0e 94 54 05 	call	0xaa8	; 0xaa8 <_Z14clrScreenArrayv>
	EnableTimer0Interrupt();
     c28:	0e 94 73 02 	call	0x4e6	; 0x4e6 <_Z21EnableTimer0Interruptv>
	sei();
     c2c:	78 94       	sei
	rtcInit();
     c2e:	0e 94 a2 06 	call	0xd44	; 0xd44 <_Z7rtcInitv>
uint8_t keyChecker();
void clrScreenArray ();

int main(void)
{
	uint8_t currentScreen = 0;
     c32:	80 e0       	ldi	r24, 0x00	; 0
	EnableTimer0Interrupt();
	sei();
	rtcInit();
    while (1) 
    {
		switch (currentScreen) {
     c34:	82 30       	cpi	r24, 0x02	; 2
     c36:	89 f0       	breq	.+34     	; 0xc5a <main+0x42>
     c38:	28 f4       	brcc	.+10     	; 0xc44 <main+0x2c>
     c3a:	88 23       	and	r24, r24
     c3c:	41 f0       	breq	.+16     	; 0xc4e <main+0x36>
     c3e:	81 30       	cpi	r24, 0x01	; 1
     c40:	49 f0       	breq	.+18     	; 0xc54 <main+0x3c>
     c42:	14 c0       	rjmp	.+40     	; 0xc6c <main+0x54>
     c44:	83 30       	cpi	r24, 0x03	; 3
     c46:	61 f0       	breq	.+24     	; 0xc60 <main+0x48>
     c48:	84 30       	cpi	r24, 0x04	; 4
     c4a:	69 f0       	breq	.+26     	; 0xc66 <main+0x4e>
     c4c:	0f c0       	rjmp	.+30     	; 0xc6c <main+0x54>
			case 0: currentScreen = rtcCycle();
     c4e:	0e 94 5d 05 	call	0xaba	; 0xaba <_Z8rtcCyclev>
					break;
     c52:	f0 cf       	rjmp	.-32     	; 0xc34 <main+0x1c>
			case 1: currentScreen = dsMode();
     c54:	0e 94 b6 02 	call	0x56c	; 0x56c <_Z6dsModev>
					break;
     c58:	ed cf       	rjmp	.-38     	; 0xc34 <main+0x1c>
			case 2: currentScreen = acbMode();
     c5a:	0e 94 af 03 	call	0x75e	; 0x75e <_Z7acbModev>
					break;
     c5e:	ea cf       	rjmp	.-44     	; 0xc34 <main+0x1c>
			case 3: currentScreen = setupMinutes();
     c60:	0e 94 60 04 	call	0x8c0	; 0x8c0 <_Z12setupMinutesv>
					break;
     c64:	e7 cf       	rjmp	.-50     	; 0xc34 <main+0x1c>
			case 4: currentScreen = setupHours();
     c66:	0e 94 e3 04 	call	0x9c6	; 0x9c6 <_Z10setupHoursv>
					break;
     c6a:	e4 cf       	rjmp	.-56     	; 0xc34 <main+0x1c>
			default: currentScreen = rtcCycle();
     c6c:	0e 94 5d 05 	call	0xaba	; 0xaba <_Z8rtcCyclev>
					 break;
     c70:	e1 cf       	rjmp	.-62     	; 0xc34 <main+0x1c>

00000c72 <_Z13i2cSetBitratej>:
void i2cSetBitrate(uint16_t bitratekHz)
{
	uint8_t bitrate_div;
	// set i2c bitrate
	// Set Prescaler to one --> TWPS = 1
	TWSR =((0<<TWPS0)|(0<<TWPS1));
     c72:	10 92 b9 00 	sts	0x00B9, r1
	//calculate bitrate division	
	bitrate_div = (((float)F_CPU/1000.0)/(float)bitratekHz);
     c76:	bc 01       	movw	r22, r24
     c78:	80 e0       	ldi	r24, 0x00	; 0
     c7a:	90 e0       	ldi	r25, 0x00	; 0
     c7c:	0e 94 1e 09 	call	0x123c	; 0x123c <__floatunsisf>
     c80:	9b 01       	movw	r18, r22
     c82:	ac 01       	movw	r20, r24
     c84:	60 e0       	ldi	r22, 0x00	; 0
     c86:	70 e0       	ldi	r23, 0x00	; 0
     c88:	8a ef       	ldi	r24, 0xFA	; 250
     c8a:	95 e4       	ldi	r25, 0x45	; 69
     c8c:	0e 94 7d 08 	call	0x10fa	; 0x10fa <__divsf3>
     c90:	0e 94 ef 08 	call	0x11de	; 0x11de <__fixunssfsi>
	if(bitrate_div >= 16){
     c94:	60 31       	cpi	r22, 0x10	; 16
     c96:	88 f0       	brcs	.+34     	; 0xcba <_Z13i2cSetBitratej+0x48>
		bitrate_div = (float)(bitrate_div-16)/8;
     c98:	70 e0       	ldi	r23, 0x00	; 0
     c9a:	60 51       	subi	r22, 0x10	; 16
     c9c:	71 09       	sbc	r23, r1
     c9e:	07 2e       	mov	r0, r23
     ca0:	00 0c       	add	r0, r0
     ca2:	88 0b       	sbc	r24, r24
     ca4:	99 0b       	sbc	r25, r25
     ca6:	0e 94 20 09 	call	0x1240	; 0x1240 <__floatsisf>
     caa:	20 e0       	ldi	r18, 0x00	; 0
     cac:	30 e0       	ldi	r19, 0x00	; 0
     cae:	40 e0       	ldi	r20, 0x00	; 0
     cb0:	5e e3       	ldi	r21, 0x3E	; 62
     cb2:	0e 94 ac 09 	call	0x1358	; 0x1358 <__mulsf3>
     cb6:	0e 94 ef 08 	call	0x11de	; 0x11de <__fixunssfsi>
	}
	//printf("DIV: %d \n",bitrate_div);
	TWBR=(uint8_t)bitrate_div;
     cba:	60 93 b8 00 	sts	0x00B8, r22
	//TWBR=0; -> max speed
	PORTC |= ((1<<PINC4) | (1<<PINC5));
     cbe:	88 b1       	in	r24, 0x08	; 8
     cc0:	80 63       	ori	r24, 0x30	; 48
     cc2:	88 b9       	out	0x08, r24	; 8
     cc4:	08 95       	ret

00000cc6 <_Z11i2cSendStopv>:
{
	
	uint8_t i = 0;		//time out variable
	uint8_t error_code=0;
	// transmit stop condition
    TWCR = (1<<TWINT)|(1<<TWEN)|(1<<TWSTO);	
     cc6:	84 e9       	ldi	r24, 0x94	; 148
     cc8:	80 93 bc 00 	sts	0x00BC, r24
// 
//----------------------------------------
uint8_t i2cSendStop(void)
{
	
	uint8_t i = 0;		//time out variable
     ccc:	90 e0       	ldi	r25, 0x00	; 0
	uint8_t error_code=0;
	// transmit stop condition
    TWCR = (1<<TWINT)|(1<<TWEN)|(1<<TWSTO);	

	// wait until stop condition is executed and bus released
    while ((TWCR & (1<<TWSTO)) && (i < 90)){
     cce:	ec eb       	ldi	r30, 0xBC	; 188
     cd0:	f0 e0       	ldi	r31, 0x00	; 0
     cd2:	80 81       	ld	r24, Z
     cd4:	84 ff       	sbrs	r24, 4
     cd6:	08 c0       	rjmp	.+16     	; 0xce8 <_Z11i2cSendStopv+0x22>
     cd8:	9a 35       	cpi	r25, 0x5A	; 90
     cda:	51 f4       	brne	.+20     	; 0xcf0 <_Z11i2cSendStopv+0x2a>
	#else
		//round up by default
		__ticks_dc = (uint32_t)(ceil(fabs(__tmp)));
	#endif

	__builtin_avr_delay_cycles(__ticks_dc);
     cdc:	82 e0       	ldi	r24, 0x02	; 2
     cde:	8a 95       	dec	r24
     ce0:	f1 f7       	brne	.-4      	; 0xcde <_Z11i2cSendStopv+0x18>
     ce2:	00 c0       	rjmp	.+0      	; 0xce4 <_Z11i2cSendStopv+0x1e>
		_delay_us(1);
		i++;
	}
	if (i>89){
		_delay_us(1);
		error_code=100;
     ce4:	84 e6       	ldi	r24, 0x64	; 100
     ce6:	08 95       	ret
	// wait until stop condition is executed and bus released
    while ((TWCR & (1<<TWSTO)) && (i < 90)){
		_delay_us(1);
		i++;
	}
	if (i>89){
     ce8:	9a 35       	cpi	r25, 0x5A	; 90
     cea:	c0 f7       	brcc	.-16     	; 0xcdc <_Z11i2cSendStopv+0x16>
//----------------------------------------
uint8_t i2cSendStop(void)
{
	
	uint8_t i = 0;		//time out variable
	uint8_t error_code=0;
     cec:	80 e0       	ldi	r24, 0x00	; 0
     cee:	08 95       	ret
     cf0:	82 e0       	ldi	r24, 0x02	; 2
     cf2:	8a 95       	dec	r24
     cf4:	f1 f7       	brne	.-4      	; 0xcf2 <_Z11i2cSendStopv+0x2c>
     cf6:	00 c0       	rjmp	.+0      	; 0xcf8 <_Z11i2cSendStopv+0x32>
    TWCR = (1<<TWINT)|(1<<TWEN)|(1<<TWSTO);	

	// wait until stop condition is executed and bus released
    while ((TWCR & (1<<TWSTO)) && (i < 90)){
		_delay_us(1);
		i++;
     cf8:	9f 5f       	subi	r25, 0xFF	; 255
     cfa:	eb cf       	rjmp	.-42     	; 0xcd2 <_Z11i2cSendStopv+0xc>

00000cfc <_Z18i2cWaitForCompletev>:
//----------------------------------------
// 
//----------------------------------------
uint8_t i2cWaitForComplete(void)
{
	uint8_t i = 0;		//time out variable
     cfc:	90 e0       	ldi	r25, 0x00	; 0
	uint8_t error_code=0;	

	// wait for i2c interface to complete operation
    while ((!(TWCR & (1<<TWINT))) && (i < 90)){
     cfe:	ec eb       	ldi	r30, 0xBC	; 188
     d00:	f0 e0       	ldi	r31, 0x00	; 0
     d02:	80 81       	ld	r24, Z
     d04:	88 23       	and	r24, r24
     d06:	44 f0       	brlt	.+16     	; 0xd18 <_Z18i2cWaitForCompletev+0x1c>
     d08:	9a 35       	cpi	r25, 0x5A	; 90
     d0a:	51 f4       	brne	.+20     	; 0xd20 <_Z18i2cWaitForCompletev+0x24>
     d0c:	82 e0       	ldi	r24, 0x02	; 2
     d0e:	8a 95       	dec	r24
     d10:	f1 f7       	brne	.-4      	; 0xd0e <_Z18i2cWaitForCompletev+0x12>
     d12:	00 c0       	rjmp	.+0      	; 0xd14 <_Z18i2cWaitForCompletev+0x18>
		_delay_us(1);
		i++;
	}
	if (i>89){
		_delay_us(1);
		error_code=100;
     d14:	84 e6       	ldi	r24, 0x64	; 100
     d16:	08 95       	ret
	// wait for i2c interface to complete operation
    while ((!(TWCR & (1<<TWINT))) && (i < 90)){
		_delay_us(1);
		i++;
	}
	if (i>89){
     d18:	9a 35       	cpi	r25, 0x5A	; 90
     d1a:	c0 f7       	brcc	.-16     	; 0xd0c <_Z18i2cWaitForCompletev+0x10>
// 
//----------------------------------------
uint8_t i2cWaitForComplete(void)
{
	uint8_t i = 0;		//time out variable
	uint8_t error_code=0;	
     d1c:	80 e0       	ldi	r24, 0x00	; 0
     d1e:	08 95       	ret
     d20:	82 e0       	ldi	r24, 0x02	; 2
     d22:	8a 95       	dec	r24
     d24:	f1 f7       	brne	.-4      	; 0xd22 <_Z18i2cWaitForCompletev+0x26>
     d26:	00 c0       	rjmp	.+0      	; 0xd28 <_Z18i2cWaitForCompletev+0x2c>

	// wait for i2c interface to complete operation
    while ((!(TWCR & (1<<TWINT))) && (i < 90)){
		_delay_us(1);
		i++;
     d28:	9f 5f       	subi	r25, 0xFF	; 255
     d2a:	eb cf       	rjmp	.-42     	; 0xd02 <_Z18i2cWaitForCompletev+0x6>

00000d2c <_Z18checki2cReturnCodeh>:
//----------------------------------------
uint8_t checki2cReturnCode(uint8_t expected_return_code){
	uint8_t error_code=0;
	uint8_t i=0;
	//while (error_code!=0 && i!=0 && i<3){
		if ((TWSR & 0xF8) != expected_return_code){
     d2c:	20 91 b9 00 	lds	r18, 0x00B9
     d30:	28 7f       	andi	r18, 0xF8	; 248
     d32:	30 e0       	ldi	r19, 0x00	; 0
     d34:	90 e0       	ldi	r25, 0x00	; 0
     d36:	28 17       	cp	r18, r24
     d38:	39 07       	cpc	r19, r25
     d3a:	11 f0       	breq	.+4      	; 0xd40 <_Z18checki2cReturnCodeh+0x14>
			error_code=10;
     d3c:	8a e0       	ldi	r24, 0x0A	; 10
     d3e:	08 95       	ret
}
//----------------------------------------
// 
//----------------------------------------
uint8_t checki2cReturnCode(uint8_t expected_return_code){
	uint8_t error_code=0;
     d40:	80 e0       	ldi	r24, 0x00	; 0
			error_code=10;
		}
	i++;
//	}
	return error_code;
}
     d42:	08 95       	ret

00000d44 <_Z7rtcInitv>:
#include "mainHeader.h"
#define RTC_adr_write 0xD0
#define RTC_adr_read 0xD1
#include "twi_lib.h"
void rtcInit () {
     d44:	ef 92       	push	r14
     d46:	ff 92       	push	r15
     d48:	1f 93       	push	r17
     d4a:	cf 93       	push	r28
     d4c:	df 93       	push	r29
	i2cSetBitrate(400);
     d4e:	80 e9       	ldi	r24, 0x90	; 144
     d50:	91 e0       	ldi	r25, 0x01	; 1
     d52:	0e 94 39 06 	call	0xc72	; 0xc72 <_Z13i2cSetBitratej>
// 
//----------------------------------------
void i2cSendStart(void)
{
	// send start condition
	TWCR = (1<<TWINT)|(1<<TWSTA)|(1<<TWEN);
     d56:	cc eb       	ldi	r28, 0xBC	; 188
     d58:	d0 e0       	ldi	r29, 0x00	; 0
     d5a:	84 ea       	ldi	r24, 0xA4	; 164
     d5c:	88 83       	st	Y, r24
	i2cSendStart();
	i2cWaitForComplete();
     d5e:	0e 94 7e 06 	call	0xcfc	; 0xcfc <_Z18i2cWaitForCompletev>
// 
//----------------------------------------
void i2cSendByte(unsigned char data)
{
	// save data to the TWDR
	TWDR = data;
     d62:	0f 2e       	mov	r0, r31
     d64:	fb eb       	ldi	r31, 0xBB	; 187
     d66:	ef 2e       	mov	r14, r31
     d68:	f1 2c       	mov	r15, r1
     d6a:	f0 2d       	mov	r31, r0
     d6c:	80 ed       	ldi	r24, 0xD0	; 208
     d6e:	f7 01       	movw	r30, r14
     d70:	80 83       	st	Z, r24
	// begin send
	TWCR = (1<<TWINT)|(1<<TWEN);
     d72:	14 e8       	ldi	r17, 0x84	; 132
     d74:	18 83       	st	Y, r17
	i2cSendByte(RTC_adr_write);
	i2cWaitForComplete();
     d76:	0e 94 7e 06 	call	0xcfc	; 0xcfc <_Z18i2cWaitForCompletev>
	checki2cReturnCode(TW_MT_DATA_ACK);
     d7a:	88 e2       	ldi	r24, 0x28	; 40
     d7c:	0e 94 96 06 	call	0xd2c	; 0xd2c <_Z18checki2cReturnCodeh>
// 
//----------------------------------------
void i2cSendByte(unsigned char data)
{
	// save data to the TWDR
	TWDR = data;
     d80:	8e e0       	ldi	r24, 0x0E	; 14
     d82:	f7 01       	movw	r30, r14
     d84:	80 83       	st	Z, r24
	// begin send
	TWCR = (1<<TWINT)|(1<<TWEN);
     d86:	18 83       	st	Y, r17

	i2cSendByte(0x0E);
	i2cWaitForComplete();
     d88:	0e 94 7e 06 	call	0xcfc	; 0xcfc <_Z18i2cWaitForCompletev>
	checki2cReturnCode(TW_MT_DATA_ACK);
     d8c:	88 e2       	ldi	r24, 0x28	; 40
     d8e:	0e 94 96 06 	call	0xd2c	; 0xd2c <_Z18checki2cReturnCodeh>
// 
//----------------------------------------
void i2cSendByte(unsigned char data)
{
	// save data to the TWDR
	TWDR = data;
     d92:	80 e2       	ldi	r24, 0x20	; 32
     d94:	f7 01       	movw	r30, r14
     d96:	80 83       	st	Z, r24
	// begin send
	TWCR = (1<<TWINT)|(1<<TWEN);
     d98:	18 83       	st	Y, r17

	i2cSendByte(0b00100000);
	i2cWaitForComplete();
     d9a:	0e 94 7e 06 	call	0xcfc	; 0xcfc <_Z18i2cWaitForCompletev>
	checki2cReturnCode(TW_MT_DATA_ACK);
     d9e:	88 e2       	ldi	r24, 0x28	; 40
     da0:	0e 94 96 06 	call	0xd2c	; 0xd2c <_Z18checki2cReturnCodeh>
// 
//----------------------------------------
void i2cSendByte(unsigned char data)
{
	// save data to the TWDR
	TWDR = data;
     da4:	88 e0       	ldi	r24, 0x08	; 8
     da6:	f7 01       	movw	r30, r14
     da8:	80 83       	st	Z, r24
	// begin send
	TWCR = (1<<TWINT)|(1<<TWEN);
     daa:	18 83       	st	Y, r17

	i2cSendByte(0b00001000);
	i2cWaitForComplete();
     dac:	0e 94 7e 06 	call	0xcfc	; 0xcfc <_Z18i2cWaitForCompletev>
	checki2cReturnCode(TW_MT_DATA_ACK);
     db0:	88 e2       	ldi	r24, 0x28	; 40
     db2:	0e 94 96 06 	call	0xd2c	; 0xd2c <_Z18checki2cReturnCodeh>

	i2cSendStop();
     db6:	0e 94 63 06 	call	0xcc6	; 0xcc6 <_Z11i2cSendStopv>
}
     dba:	df 91       	pop	r29
     dbc:	cf 91       	pop	r28
     dbe:	1f 91       	pop	r17
     dc0:	ff 90       	pop	r15
     dc2:	ef 90       	pop	r14
     dc4:	08 95       	ret

00000dc6 <_Z8readTimePh>:

void readTime (uint8_t* timeArr) {
     dc6:	9f 92       	push	r9
     dc8:	af 92       	push	r10
     dca:	bf 92       	push	r11
     dcc:	cf 92       	push	r12
     dce:	df 92       	push	r13
     dd0:	ef 92       	push	r14
     dd2:	ff 92       	push	r15
     dd4:	0f 93       	push	r16
     dd6:	1f 93       	push	r17
     dd8:	cf 93       	push	r28
     dda:	df 93       	push	r29
     ddc:	5c 01       	movw	r10, r24
// 
//----------------------------------------
void i2cSendStart(void)
{
	// send start condition
	TWCR = (1<<TWINT)|(1<<TWSTA)|(1<<TWEN);
     dde:	cc eb       	ldi	r28, 0xBC	; 188
     de0:	d0 e0       	ldi	r29, 0x00	; 0
     de2:	04 ea       	ldi	r16, 0xA4	; 164
     de4:	08 83       	st	Y, r16
	i2cSendStart();
	i2cWaitForComplete();
     de6:	0e 94 7e 06 	call	0xcfc	; 0xcfc <_Z18i2cWaitForCompletev>
// 
//----------------------------------------
void i2cSendByte(unsigned char data)
{
	// save data to the TWDR
	TWDR = data;
     dea:	0f 2e       	mov	r0, r31
     dec:	fb eb       	ldi	r31, 0xBB	; 187
     dee:	ef 2e       	mov	r14, r31
     df0:	f1 2c       	mov	r15, r1
     df2:	f0 2d       	mov	r31, r0
     df4:	80 ed       	ldi	r24, 0xD0	; 208
     df6:	f7 01       	movw	r30, r14
     df8:	80 83       	st	Z, r24
	// begin send
	TWCR = (1<<TWINT)|(1<<TWEN);
     dfa:	14 e8       	ldi	r17, 0x84	; 132
     dfc:	18 83       	st	Y, r17
	i2cSendByte(RTC_adr_write);
	i2cWaitForComplete();
     dfe:	0e 94 7e 06 	call	0xcfc	; 0xcfc <_Z18i2cWaitForCompletev>
	checki2cReturnCode(TW_MT_DATA_ACK);
     e02:	88 e2       	ldi	r24, 0x28	; 40
     e04:	0e 94 96 06 	call	0xd2c	; 0xd2c <_Z18checki2cReturnCodeh>
// 
//----------------------------------------
void i2cSendByte(unsigned char data)
{
	// save data to the TWDR
	TWDR = data;
     e08:	f7 01       	movw	r30, r14
     e0a:	10 82       	st	Z, r1
	// begin send
	TWCR = (1<<TWINT)|(1<<TWEN);
     e0c:	18 83       	st	Y, r17

	i2cSendByte(0x00);
	i2cWaitForComplete();
     e0e:	0e 94 7e 06 	call	0xcfc	; 0xcfc <_Z18i2cWaitForCompletev>
	checki2cReturnCode(TW_MT_DATA_ACK);
     e12:	88 e2       	ldi	r24, 0x28	; 40
     e14:	0e 94 96 06 	call	0xd2c	; 0xd2c <_Z18checki2cReturnCodeh>

	i2cSendStop();
     e18:	0e 94 63 06 	call	0xcc6	; 0xcc6 <_Z11i2cSendStopv>
// 
//----------------------------------------
void i2cSendStart(void)
{
	// send start condition
	TWCR = (1<<TWINT)|(1<<TWSTA)|(1<<TWEN);
     e1c:	08 83       	st	Y, r16

	//Reading

	i2cSendStart();
	i2cWaitForComplete();
     e1e:	0e 94 7e 06 	call	0xcfc	; 0xcfc <_Z18i2cWaitForCompletev>
// 
//----------------------------------------
void i2cSendByte(unsigned char data)
{
	// save data to the TWDR
	TWDR = data;
     e22:	81 ed       	ldi	r24, 0xD1	; 209
     e24:	f7 01       	movw	r30, r14
     e26:	80 83       	st	Z, r24
	// begin send
	TWCR = (1<<TWINT)|(1<<TWEN);
     e28:	18 83       	st	Y, r17
	i2cSendByte(RTC_adr_read);
	i2cWaitForComplete();
     e2a:	0e 94 7e 06 	call	0xcfc	; 0xcfc <_Z18i2cWaitForCompletev>
	checki2cReturnCode(TW_MT_DATA_ACK);
     e2e:	88 e2       	ldi	r24, 0x28	; 40
     e30:	0e 94 96 06 	call	0xd2c	; 0xd2c <_Z18checki2cReturnCodeh>
	i2cWaitForComplete();
     e34:	0e 94 7e 06 	call	0xcfc	; 0xcfc <_Z18i2cWaitForCompletev>
     e38:	e5 01       	movw	r28, r10
     e3a:	65 01       	movw	r12, r10
     e3c:	f3 e1       	ldi	r31, 0x13	; 19
     e3e:	cf 0e       	add	r12, r31
     e40:	d1 1c       	adc	r13, r1
// 
//----------------------------------------
void i2cReceiveByteACK(void)
{

	TWCR = (1<<TWINT)|(1<<TWEN)|(1<<TWEA);
     e42:	0f 2e       	mov	r0, r31
     e44:	fc eb       	ldi	r31, 0xBC	; 188
     e46:	ef 2e       	mov	r14, r31
     e48:	f1 2c       	mov	r15, r1
     e4a:	f0 2d       	mov	r31, r0
     e4c:	0f 2e       	mov	r0, r31
     e4e:	f4 ec       	ldi	r31, 0xC4	; 196
     e50:	9f 2e       	mov	r9, r31
     e52:	f0 2d       	mov	r31, r0
// 
//----------------------------------------
uint8_t i2cGetReceivedByte(void)
{
	// retieve received data byte from i2c TWDR
	return (uint8_t)TWDR;
     e54:	0b eb       	ldi	r16, 0xBB	; 187
     e56:	10 e0       	ldi	r17, 0x00	; 0
// 
//----------------------------------------
void i2cReceiveByteACK(void)
{

	TWCR = (1<<TWINT)|(1<<TWEN)|(1<<TWEA);
     e58:	f7 01       	movw	r30, r14
     e5a:	90 82       	st	Z, r9

	for (int i = 0; i < 0x13; i += 1) {
		i2cReceiveByteACK();
		i2cWaitForComplete();
     e5c:	0e 94 7e 06 	call	0xcfc	; 0xcfc <_Z18i2cWaitForCompletev>
// 
//----------------------------------------
uint8_t i2cGetReceivedByte(void)
{
	// retieve received data byte from i2c TWDR
	return (uint8_t)TWDR;
     e60:	f8 01       	movw	r30, r16
     e62:	90 81       	ld	r25, Z
		timeArr[i] = i2cGetReceivedByte();
     e64:	99 93       	st	Y+, r25
		i2cWaitForComplete();
     e66:	0e 94 7e 06 	call	0xcfc	; 0xcfc <_Z18i2cWaitForCompletev>
		checki2cReturnCode(TW_MR_DATA_ACK);
     e6a:	80 e5       	ldi	r24, 0x50	; 80
     e6c:	0e 94 96 06 	call	0xd2c	; 0xd2c <_Z18checki2cReturnCodeh>
	i2cSendByte(RTC_adr_read);
	i2cWaitForComplete();
	checki2cReturnCode(TW_MT_DATA_ACK);
	i2cWaitForComplete();

	for (int i = 0; i < 0x13; i += 1) {
     e70:	cc 15       	cp	r28, r12
     e72:	dd 05       	cpc	r29, r13
     e74:	89 f7       	brne	.-30     	; 0xe58 <_Z8readTimePh+0x92>
// 
//----------------------------------------
void i2cReceiveByteNACK(void)
{

	TWCR = (1<<TWINT)|(1<<TWEN);
     e76:	84 e8       	ldi	r24, 0x84	; 132
     e78:	80 93 bc 00 	sts	0x00BC, r24
		timeArr[i] = i2cGetReceivedByte();
		i2cWaitForComplete();
		checki2cReturnCode(TW_MR_DATA_ACK);
	}
	i2cReceiveByteNACK();
	i2cWaitForComplete();
     e7c:	0e 94 7e 06 	call	0xcfc	; 0xcfc <_Z18i2cWaitForCompletev>
// 
//----------------------------------------
uint8_t i2cGetReceivedByte(void)
{
	// retieve received data byte from i2c TWDR
	return (uint8_t)TWDR;
     e80:	80 91 bb 00 	lds	r24, 0x00BB
	timeArr[6] = i2cGetReceivedByte();
     e84:	f5 01       	movw	r30, r10
     e86:	86 83       	std	Z+6, r24	; 0x06
	i2cWaitForComplete();
     e88:	0e 94 7e 06 	call	0xcfc	; 0xcfc <_Z18i2cWaitForCompletev>
	checki2cReturnCode(TW_MR_DATA_NACK);
     e8c:	88 e5       	ldi	r24, 0x58	; 88
     e8e:	0e 94 96 06 	call	0xd2c	; 0xd2c <_Z18checki2cReturnCodeh>

	

}
     e92:	df 91       	pop	r29
     e94:	cf 91       	pop	r28
     e96:	1f 91       	pop	r17
     e98:	0f 91       	pop	r16
     e9a:	ff 90       	pop	r15
     e9c:	ef 90       	pop	r14
     e9e:	df 90       	pop	r13
     ea0:	cf 90       	pop	r12
     ea2:	bf 90       	pop	r11
     ea4:	af 90       	pop	r10
     ea6:	9f 90       	pop	r9
     ea8:	08 95       	ret

00000eaa <_Z14rtcSendMinutesh>:
void rtcSendMinutes (uint8_t minutes) {
     eaa:	ef 92       	push	r14
     eac:	ff 92       	push	r15
     eae:	0f 93       	push	r16
     eb0:	1f 93       	push	r17
     eb2:	cf 93       	push	r28
     eb4:	df 93       	push	r29
	uint8_t bdc = 0;
	bdc = minutes/10;
     eb6:	9d ec       	ldi	r25, 0xCD	; 205
     eb8:	89 9f       	mul	r24, r25
     eba:	91 2d       	mov	r25, r1
     ebc:	11 24       	eor	r1, r1
     ebe:	96 95       	lsr	r25
     ec0:	96 95       	lsr	r25
     ec2:	96 95       	lsr	r25
	bdc <<= 4;
     ec4:	c9 2f       	mov	r28, r25
     ec6:	c2 95       	swap	r28
     ec8:	c0 7f       	andi	r28, 0xF0	; 240
	bdc |= minutes%10;
     eca:	99 0f       	add	r25, r25
     ecc:	29 2f       	mov	r18, r25
     ece:	22 0f       	add	r18, r18
     ed0:	22 0f       	add	r18, r18
     ed2:	92 0f       	add	r25, r18
     ed4:	89 1b       	sub	r24, r25
     ed6:	c8 2b       	or	r28, r24
// 
//----------------------------------------
void i2cSendStart(void)
{
	// send start condition
	TWCR = (1<<TWINT)|(1<<TWSTA)|(1<<TWEN);
     ed8:	0c eb       	ldi	r16, 0xBC	; 188
     eda:	10 e0       	ldi	r17, 0x00	; 0
     edc:	84 ea       	ldi	r24, 0xA4	; 164
     ede:	f8 01       	movw	r30, r16
     ee0:	80 83       	st	Z, r24
	i2cSendStart();
	i2cWaitForComplete();
     ee2:	0e 94 7e 06 	call	0xcfc	; 0xcfc <_Z18i2cWaitForCompletev>
// 
//----------------------------------------
void i2cSendByte(unsigned char data)
{
	// save data to the TWDR
	TWDR = data;
     ee6:	0f 2e       	mov	r0, r31
     ee8:	fb eb       	ldi	r31, 0xBB	; 187
     eea:	ef 2e       	mov	r14, r31
     eec:	f1 2c       	mov	r15, r1
     eee:	f0 2d       	mov	r31, r0
     ef0:	80 ed       	ldi	r24, 0xD0	; 208
     ef2:	f7 01       	movw	r30, r14
     ef4:	80 83       	st	Z, r24
	// begin send
	TWCR = (1<<TWINT)|(1<<TWEN);
     ef6:	d4 e8       	ldi	r29, 0x84	; 132
     ef8:	f8 01       	movw	r30, r16
     efa:	d0 83       	st	Z, r29
	i2cSendByte(RTC_adr_write);
	i2cWaitForComplete();
     efc:	0e 94 7e 06 	call	0xcfc	; 0xcfc <_Z18i2cWaitForCompletev>
	checki2cReturnCode(TW_MT_DATA_ACK);
     f00:	88 e2       	ldi	r24, 0x28	; 40
     f02:	0e 94 96 06 	call	0xd2c	; 0xd2c <_Z18checki2cReturnCodeh>
// 
//----------------------------------------
void i2cSendByte(unsigned char data)
{
	// save data to the TWDR
	TWDR = data;
     f06:	f7 01       	movw	r30, r14
     f08:	10 82       	st	Z, r1
	// begin send
	TWCR = (1<<TWINT)|(1<<TWEN);
     f0a:	f8 01       	movw	r30, r16
     f0c:	d0 83       	st	Z, r29

	i2cSendByte(0x00);
	i2cWaitForComplete();
     f0e:	0e 94 7e 06 	call	0xcfc	; 0xcfc <_Z18i2cWaitForCompletev>
	checki2cReturnCode(TW_MT_DATA_ACK);
     f12:	88 e2       	ldi	r24, 0x28	; 40
     f14:	0e 94 96 06 	call	0xd2c	; 0xd2c <_Z18checki2cReturnCodeh>
// 
//----------------------------------------
void i2cSendByte(unsigned char data)
{
	// save data to the TWDR
	TWDR = data;
     f18:	f7 01       	movw	r30, r14
     f1a:	10 82       	st	Z, r1
	// begin send
	TWCR = (1<<TWINT)|(1<<TWEN);
     f1c:	f8 01       	movw	r30, r16
     f1e:	d0 83       	st	Z, r29

	i2cSendByte(0);
	i2cWaitForComplete();
     f20:	0e 94 7e 06 	call	0xcfc	; 0xcfc <_Z18i2cWaitForCompletev>
	checki2cReturnCode(TW_MT_DATA_ACK);
     f24:	88 e2       	ldi	r24, 0x28	; 40
     f26:	0e 94 96 06 	call	0xd2c	; 0xd2c <_Z18checki2cReturnCodeh>
// 
//----------------------------------------
void i2cSendByte(unsigned char data)
{
	// save data to the TWDR
	TWDR = data;
     f2a:	f7 01       	movw	r30, r14
     f2c:	c0 83       	st	Z, r28
	// begin send
	TWCR = (1<<TWINT)|(1<<TWEN);
     f2e:	f8 01       	movw	r30, r16
     f30:	d0 83       	st	Z, r29

	i2cSendByte(bdc);
	i2cWaitForComplete();
     f32:	0e 94 7e 06 	call	0xcfc	; 0xcfc <_Z18i2cWaitForCompletev>
	checki2cReturnCode(TW_MT_DATA_ACK);
     f36:	88 e2       	ldi	r24, 0x28	; 40
     f38:	0e 94 96 06 	call	0xd2c	; 0xd2c <_Z18checki2cReturnCodeh>

	i2cSendStop();
     f3c:	0e 94 63 06 	call	0xcc6	; 0xcc6 <_Z11i2cSendStopv>
}
     f40:	df 91       	pop	r29
     f42:	cf 91       	pop	r28
     f44:	1f 91       	pop	r17
     f46:	0f 91       	pop	r16
     f48:	ff 90       	pop	r15
     f4a:	ef 90       	pop	r14
     f4c:	08 95       	ret

00000f4e <_Z12rtcSendHoursh>:

void rtcSendHours (uint8_t hours) {
     f4e:	ef 92       	push	r14
     f50:	ff 92       	push	r15
     f52:	0f 93       	push	r16
     f54:	1f 93       	push	r17
     f56:	cf 93       	push	r28
     f58:	df 93       	push	r29
	uint8_t bdc = 0;
	bdc = hours/10;
     f5a:	9d ec       	ldi	r25, 0xCD	; 205
     f5c:	89 9f       	mul	r24, r25
     f5e:	91 2d       	mov	r25, r1
     f60:	11 24       	eor	r1, r1
     f62:	96 95       	lsr	r25
     f64:	96 95       	lsr	r25
     f66:	96 95       	lsr	r25
	bdc <<= 4;
     f68:	c9 2f       	mov	r28, r25
     f6a:	c2 95       	swap	r28
     f6c:	c0 7f       	andi	r28, 0xF0	; 240
	bdc |= hours%10;
     f6e:	99 0f       	add	r25, r25
     f70:	29 2f       	mov	r18, r25
     f72:	22 0f       	add	r18, r18
     f74:	22 0f       	add	r18, r18
     f76:	92 0f       	add	r25, r18
     f78:	89 1b       	sub	r24, r25
     f7a:	c8 2b       	or	r28, r24
// 
//----------------------------------------
void i2cSendStart(void)
{
	// send start condition
	TWCR = (1<<TWINT)|(1<<TWSTA)|(1<<TWEN);
     f7c:	0c eb       	ldi	r16, 0xBC	; 188
     f7e:	10 e0       	ldi	r17, 0x00	; 0
     f80:	84 ea       	ldi	r24, 0xA4	; 164
     f82:	f8 01       	movw	r30, r16
     f84:	80 83       	st	Z, r24
	i2cSendStart();
	i2cWaitForComplete();
     f86:	0e 94 7e 06 	call	0xcfc	; 0xcfc <_Z18i2cWaitForCompletev>
// 
//----------------------------------------
void i2cSendByte(unsigned char data)
{
	// save data to the TWDR
	TWDR = data;
     f8a:	0f 2e       	mov	r0, r31
     f8c:	fb eb       	ldi	r31, 0xBB	; 187
     f8e:	ef 2e       	mov	r14, r31
     f90:	f1 2c       	mov	r15, r1
     f92:	f0 2d       	mov	r31, r0
     f94:	80 ed       	ldi	r24, 0xD0	; 208
     f96:	f7 01       	movw	r30, r14
     f98:	80 83       	st	Z, r24
	// begin send
	TWCR = (1<<TWINT)|(1<<TWEN);
     f9a:	d4 e8       	ldi	r29, 0x84	; 132
     f9c:	f8 01       	movw	r30, r16
     f9e:	d0 83       	st	Z, r29
	i2cSendByte(RTC_adr_write);
	i2cWaitForComplete();
     fa0:	0e 94 7e 06 	call	0xcfc	; 0xcfc <_Z18i2cWaitForCompletev>
	checki2cReturnCode(TW_MT_DATA_ACK);
     fa4:	88 e2       	ldi	r24, 0x28	; 40
     fa6:	0e 94 96 06 	call	0xd2c	; 0xd2c <_Z18checki2cReturnCodeh>
// 
//----------------------------------------
void i2cSendByte(unsigned char data)
{
	// save data to the TWDR
	TWDR = data;
     faa:	82 e0       	ldi	r24, 0x02	; 2
     fac:	f7 01       	movw	r30, r14
     fae:	80 83       	st	Z, r24
	// begin send
	TWCR = (1<<TWINT)|(1<<TWEN);
     fb0:	f8 01       	movw	r30, r16
     fb2:	d0 83       	st	Z, r29

	i2cSendByte(0x02);
	i2cWaitForComplete();
     fb4:	0e 94 7e 06 	call	0xcfc	; 0xcfc <_Z18i2cWaitForCompletev>
	checki2cReturnCode(TW_MT_DATA_ACK);
     fb8:	88 e2       	ldi	r24, 0x28	; 40
     fba:	0e 94 96 06 	call	0xd2c	; 0xd2c <_Z18checki2cReturnCodeh>
// 
//----------------------------------------
void i2cSendByte(unsigned char data)
{
	// save data to the TWDR
	TWDR = data;
     fbe:	f7 01       	movw	r30, r14
     fc0:	c0 83       	st	Z, r28
	// begin send
	TWCR = (1<<TWINT)|(1<<TWEN);
     fc2:	f8 01       	movw	r30, r16
     fc4:	d0 83       	st	Z, r29

	i2cSendByte(bdc);
	i2cWaitForComplete();
     fc6:	0e 94 7e 06 	call	0xcfc	; 0xcfc <_Z18i2cWaitForCompletev>
	checki2cReturnCode(TW_MT_DATA_ACK);
     fca:	88 e2       	ldi	r24, 0x28	; 40
     fcc:	0e 94 96 06 	call	0xd2c	; 0xd2c <_Z18checki2cReturnCodeh>

	i2cSendStop();
     fd0:	0e 94 63 06 	call	0xcc6	; 0xcc6 <_Z11i2cSendStopv>
     fd4:	df 91       	pop	r29
     fd6:	cf 91       	pop	r28
     fd8:	1f 91       	pop	r17
     fda:	0f 91       	pop	r16
     fdc:	ff 90       	pop	r15
     fde:	ef 90       	pop	r14
     fe0:	08 95       	ret

00000fe2 <_Z6ClrScrv>:

	}
}
void ClrScr()
{
	DDRC  |= 1<<PORTC2;
     fe2:	3a 9a       	sbi	0x07, 2	; 7
	PORTC &= ~(1<<PORTC2);
     fe4:	42 98       	cbi	0x08, 2	; 8

	DDRD  |= 1<<PORTD1|1<<PORTD5;
     fe6:	8a b1       	in	r24, 0x0a	; 10
     fe8:	82 62       	ori	r24, 0x22	; 34
     fea:	8a b9       	out	0x0a, r24	; 10
	PORTD &= ~(1<<PORTD1|1<<PORTD5);
     fec:	8b b1       	in	r24, 0x0b	; 11
     fee:	8d 7d       	andi	r24, 0xDD	; 221
     ff0:	8b b9       	out	0x0b, r24	; 11

	DDRB  |= 1<<PORTB0|1<<PORTB2|1<<PORTB3|1<<PORTB4|1<<PORTB5;
     ff2:	84 b1       	in	r24, 0x04	; 4
     ff4:	8d 63       	ori	r24, 0x3D	; 61
     ff6:	84 b9       	out	0x04, r24	; 4
	PORTB &= ~(1<<PORTB0|1<<PORTB2|1<<PORTB3|1<<PORTB4|1<<PORTB5);
     ff8:	85 b1       	in	r24, 0x05	; 5
     ffa:	82 7c       	andi	r24, 0xC2	; 194
     ffc:	85 b9       	out	0x05, r24	; 5
	///
	DDRB |= 1<<PORTB1;
     ffe:	21 9a       	sbi	0x04, 1	; 4
	DDRC |= 1<<PORTC3;
    1000:	3b 9a       	sbi	0x07, 3	; 7
	DDRD |= 1<<PORTD6|1<<PORTD7;
    1002:	8a b1       	in	r24, 0x0a	; 10
    1004:	80 6c       	ori	r24, 0xC0	; 192
    1006:	8a b9       	out	0x0a, r24	; 10
	PORTB |= 1<<PORTB1;
    1008:	29 9a       	sbi	0x05, 1	; 5
	PORTC |= 1<<PORTC3;
    100a:	43 9a       	sbi	0x08, 3	; 8
	PORTD |= 1<<PORTD6|1<<PORTD7;
    100c:	8b b1       	in	r24, 0x0b	; 11
    100e:	80 6c       	ori	r24, 0xC0	; 192
    1010:	8b b9       	out	0x0b, r24	; 11
    1012:	08 95       	ret

00001014 <_Z11Display7seghb>:
#include "mainHeader.h"



void Display7seg(uint8_t digit, bool dp = false)
{
    1014:	cf 93       	push	r28
    1016:	df 93       	push	r29
    1018:	c8 2f       	mov	r28, r24
    101a:	d6 2f       	mov	r29, r22
	ClrScr();
    101c:	0e 94 f1 07 	call	0xfe2	; 0xfe2 <_Z6ClrScrv>
	if(dp) PORTB |= 1<<PORTB4;
    1020:	d1 11       	cpse	r29, r1
    1022:	2c 9a       	sbi	0x05, 4	; 5
	
	switch(digit){
    1024:	8c 2f       	mov	r24, r28
    1026:	90 e0       	ldi	r25, 0x00	; 0
    1028:	86 37       	cpi	r24, 0x76	; 118
    102a:	91 05       	cpc	r25, r1
    102c:	08 f0       	brcs	.+2      	; 0x1030 <_Z11Display7seghb+0x1c>
    102e:	4d c0       	rjmp	.+154    	; 0x10ca <_Z11Display7seghb+0xb6>
    1030:	fc 01       	movw	r30, r24
    1032:	ec 5c       	subi	r30, 0xCC	; 204
    1034:	ff 4f       	sbci	r31, 0xFF	; 255
    1036:	0c 94 2d 0a 	jmp	0x145a	; 0x145a <__tablejump2__>
		PORTC2		PORTB3
			  PORTB5		PORTB4

		*/
		
		case 0: PORTB |=1<<PORTB0|1<<PORTB3|1<<PORTB5;
    103a:	85 b1       	in	r24, 0x05	; 5
    103c:	89 62       	ori	r24, 0x29	; 41
    103e:	85 b9       	out	0x05, r24	; 5
				PORTD |=1<<PORTD1|1<<PORTD5;
    1040:	8b b1       	in	r24, 0x0b	; 11
    1042:	82 62       	ori	r24, 0x22	; 34
    1044:	8b b9       	out	0x0b, r24	; 11
				PORTC |=1<<PORTC2;
    1046:	42 9a       	sbi	0x08, 2	; 8
				break;
    1048:	42 c0       	rjmp	.+132    	; 0x10ce <_Z11Display7seghb+0xba>
		case 1: PORTB |=1<<PORTB0|1<<PORTB3;
    104a:	85 b1       	in	r24, 0x05	; 5
    104c:	89 60       	ori	r24, 0x09	; 9
    104e:	85 b9       	out	0x05, r24	; 5
				break;
    1050:	3e c0       	rjmp	.+124    	; 0x10ce <_Z11Display7seghb+0xba>
		case 2: PORTB |=1<<PORTB0|1<<PORTB2|1<<PORTB5;
    1052:	85 b1       	in	r24, 0x05	; 5
    1054:	85 62       	ori	r24, 0x25	; 37
    1056:	85 b9       	out	0x05, r24	; 5
				PORTD |=1<<PORTD1;
    1058:	59 9a       	sbi	0x0b, 1	; 11
				PORTC |=1<<PORTC2;
    105a:	42 9a       	sbi	0x08, 2	; 8
				break;
    105c:	38 c0       	rjmp	.+112    	; 0x10ce <_Z11Display7seghb+0xba>
		case 3: PORTB |=1<<PORTB0|1<<PORTB2|1<<PORTB3|1<<PORTB5;
    105e:	85 b1       	in	r24, 0x05	; 5
    1060:	8d 62       	ori	r24, 0x2D	; 45
    1062:	85 b9       	out	0x05, r24	; 5
				PORTD |=1<<PORTD1;
    1064:	59 9a       	sbi	0x0b, 1	; 11
				break;
    1066:	33 c0       	rjmp	.+102    	; 0x10ce <_Z11Display7seghb+0xba>
		case 4: PORTB |=1<<PORTB0|1<<PORTB2|1<<PORTB3;
    1068:	85 b1       	in	r24, 0x05	; 5
    106a:	8d 60       	ori	r24, 0x0D	; 13
    106c:	85 b9       	out	0x05, r24	; 5
				PORTD |=1<<PORTD5;
    106e:	5d 9a       	sbi	0x0b, 5	; 11
				break;
    1070:	2e c0       	rjmp	.+92     	; 0x10ce <_Z11Display7seghb+0xba>
		case 5: PORTB |=1<<PORTB2|1<<PORTB3|1<<PORTB5;
    1072:	85 b1       	in	r24, 0x05	; 5
    1074:	8c 62       	ori	r24, 0x2C	; 44
    1076:	85 b9       	out	0x05, r24	; 5
				PORTD |=1<<PORTD1|1<<PORTD5;
    1078:	8b b1       	in	r24, 0x0b	; 11
    107a:	82 62       	ori	r24, 0x22	; 34
    107c:	8b b9       	out	0x0b, r24	; 11
				break;
    107e:	27 c0       	rjmp	.+78     	; 0x10ce <_Z11Display7seghb+0xba>
		case 6: PORTB |=1<<PORTB2|1<<PORTB3|1<<PORTB5;
    1080:	85 b1       	in	r24, 0x05	; 5
    1082:	8c 62       	ori	r24, 0x2C	; 44
    1084:	85 b9       	out	0x05, r24	; 5
				PORTD |=1<<PORTD1|1<<PORTD5;
    1086:	8b b1       	in	r24, 0x0b	; 11
    1088:	82 62       	ori	r24, 0x22	; 34
    108a:	8b b9       	out	0x0b, r24	; 11
				PORTC |=1<<PORTC2;
    108c:	42 9a       	sbi	0x08, 2	; 8
				break;
    108e:	1f c0       	rjmp	.+62     	; 0x10ce <_Z11Display7seghb+0xba>
		case 7: PORTB |=1<<PORTB0|1<<PORTB3;
    1090:	85 b1       	in	r24, 0x05	; 5
    1092:	89 60       	ori	r24, 0x09	; 9
    1094:	85 b9       	out	0x05, r24	; 5
				PORTD |=1<<PORTD1|1<<PORTD5;
    1096:	8b b1       	in	r24, 0x0b	; 11
    1098:	82 62       	ori	r24, 0x22	; 34
    109a:	8b b9       	out	0x0b, r24	; 11
				break;
    109c:	18 c0       	rjmp	.+48     	; 0x10ce <_Z11Display7seghb+0xba>
		case 8: PORTB |=1<<PORTB0|1<<PORTB2|1<<PORTB3|1<<PORTB5;
    109e:	85 b1       	in	r24, 0x05	; 5
    10a0:	8d 62       	ori	r24, 0x2D	; 45
    10a2:	85 b9       	out	0x05, r24	; 5
				PORTD |=1<<PORTD1|1<<PORTD5;
    10a4:	8b b1       	in	r24, 0x0b	; 11
    10a6:	82 62       	ori	r24, 0x22	; 34
    10a8:	8b b9       	out	0x0b, r24	; 11
				PORTC |=1<<PORTC2;
    10aa:	42 9a       	sbi	0x08, 2	; 8
				break;
    10ac:	10 c0       	rjmp	.+32     	; 0x10ce <_Z11Display7seghb+0xba>
		case 9: PORTB |=1<<PORTB0|1<<PORTB2|1<<PORTB3|1<<PORTB5;
    10ae:	85 b1       	in	r24, 0x05	; 5
    10b0:	8d 62       	ori	r24, 0x2D	; 45
    10b2:	85 b9       	out	0x05, r24	; 5
				PORTD |=1<<PORTD1|1<<PORTD5;
    10b4:	8b b1       	in	r24, 0x0b	; 11
    10b6:	82 62       	ori	r24, 0x22	; 34
    10b8:	8b b9       	out	0x0b, r24	; 11
				break;
    10ba:	09 c0       	rjmp	.+18     	; 0x10ce <_Z11Display7seghb+0xba>
	  case 'u': PORTB |=1<<PORTB3|1<<PORTB5;
    10bc:	85 b1       	in	r24, 0x05	; 5
    10be:	88 62       	ori	r24, 0x28	; 40
    10c0:	85 b9       	out	0x05, r24	; 5
				PORTC |=1<<PORTC2;
    10c2:	42 9a       	sbi	0x08, 2	; 8
				break;
    10c4:	04 c0       	rjmp	.+8      	; 0x10ce <_Z11Display7seghb+0xba>
	  case '-': PORTB |= 1<<PORTB2;
    10c6:	2a 9a       	sbi	0x05, 2	; 5
				break;
    10c8:	02 c0       	rjmp	.+4      	; 0x10ce <_Z11Display7seghb+0xba>
		default: ClrScr();
    10ca:	0e 94 f1 07 	call	0xfe2	; 0xfe2 <_Z6ClrScrv>
				break;

	}
}
    10ce:	df 91       	pop	r29
    10d0:	cf 91       	pop	r28
    10d2:	08 95       	ret

000010d4 <_Z9NextDigith>:
}

void NextDigit(uint8_t number)
{
	
	switch(number)
    10d4:	82 30       	cpi	r24, 0x02	; 2
    10d6:	59 f0       	breq	.+22     	; 0x10ee <_Z9NextDigith+0x1a>
    10d8:	18 f4       	brcc	.+6      	; 0x10e0 <_Z9NextDigith+0xc>
    10da:	81 30       	cpi	r24, 0x01	; 1
    10dc:	31 f0       	breq	.+12     	; 0x10ea <_Z9NextDigith+0x16>
    10de:	08 95       	ret
    10e0:	83 30       	cpi	r24, 0x03	; 3
    10e2:	39 f0       	breq	.+14     	; 0x10f2 <_Z9NextDigith+0x1e>
    10e4:	84 30       	cpi	r24, 0x04	; 4
    10e6:	39 f0       	breq	.+14     	; 0x10f6 <_Z9NextDigith+0x22>
    10e8:	08 95       	ret
	{
		case 1:
		PORTC &= ~(1<<PORTC3);
    10ea:	43 98       	cbi	0x08, 3	; 8
		break;
    10ec:	08 95       	ret
		case 2:
		PORTD &= ~(1<<PORTD6);
    10ee:	5e 98       	cbi	0x0b, 6	; 11
		break;
    10f0:	08 95       	ret
		case 3:
		PORTD &= ~(1<<PORTD7);
    10f2:	5f 98       	cbi	0x0b, 7	; 11
		break;
    10f4:	08 95       	ret
		case 4:
		PORTB &= ~(1<<PORTB1);
    10f6:	29 98       	cbi	0x05, 1	; 5
    10f8:	08 95       	ret

000010fa <__divsf3>:
    10fa:	0e 94 91 08 	call	0x1122	; 0x1122 <__divsf3x>
    10fe:	0c 94 72 09 	jmp	0x12e4	; 0x12e4 <__fp_round>
    1102:	0e 94 6b 09 	call	0x12d6	; 0x12d6 <__fp_pscB>
    1106:	58 f0       	brcs	.+22     	; 0x111e <__divsf3+0x24>
    1108:	0e 94 64 09 	call	0x12c8	; 0x12c8 <__fp_pscA>
    110c:	40 f0       	brcs	.+16     	; 0x111e <__divsf3+0x24>
    110e:	29 f4       	brne	.+10     	; 0x111a <__divsf3+0x20>
    1110:	5f 3f       	cpi	r21, 0xFF	; 255
    1112:	29 f0       	breq	.+10     	; 0x111e <__divsf3+0x24>
    1114:	0c 94 5b 09 	jmp	0x12b6	; 0x12b6 <__fp_inf>
    1118:	51 11       	cpse	r21, r1
    111a:	0c 94 a6 09 	jmp	0x134c	; 0x134c <__fp_szero>
    111e:	0c 94 61 09 	jmp	0x12c2	; 0x12c2 <__fp_nan>

00001122 <__divsf3x>:
    1122:	0e 94 83 09 	call	0x1306	; 0x1306 <__fp_split3>
    1126:	68 f3       	brcs	.-38     	; 0x1102 <__divsf3+0x8>

00001128 <__divsf3_pse>:
    1128:	99 23       	and	r25, r25
    112a:	b1 f3       	breq	.-20     	; 0x1118 <__divsf3+0x1e>
    112c:	55 23       	and	r21, r21
    112e:	91 f3       	breq	.-28     	; 0x1114 <__divsf3+0x1a>
    1130:	95 1b       	sub	r25, r21
    1132:	55 0b       	sbc	r21, r21
    1134:	bb 27       	eor	r27, r27
    1136:	aa 27       	eor	r26, r26
    1138:	62 17       	cp	r22, r18
    113a:	73 07       	cpc	r23, r19
    113c:	84 07       	cpc	r24, r20
    113e:	38 f0       	brcs	.+14     	; 0x114e <__divsf3_pse+0x26>
    1140:	9f 5f       	subi	r25, 0xFF	; 255
    1142:	5f 4f       	sbci	r21, 0xFF	; 255
    1144:	22 0f       	add	r18, r18
    1146:	33 1f       	adc	r19, r19
    1148:	44 1f       	adc	r20, r20
    114a:	aa 1f       	adc	r26, r26
    114c:	a9 f3       	breq	.-22     	; 0x1138 <__divsf3_pse+0x10>
    114e:	35 d0       	rcall	.+106    	; 0x11ba <__divsf3_pse+0x92>
    1150:	0e 2e       	mov	r0, r30
    1152:	3a f0       	brmi	.+14     	; 0x1162 <__divsf3_pse+0x3a>
    1154:	e0 e8       	ldi	r30, 0x80	; 128
    1156:	32 d0       	rcall	.+100    	; 0x11bc <__divsf3_pse+0x94>
    1158:	91 50       	subi	r25, 0x01	; 1
    115a:	50 40       	sbci	r21, 0x00	; 0
    115c:	e6 95       	lsr	r30
    115e:	00 1c       	adc	r0, r0
    1160:	ca f7       	brpl	.-14     	; 0x1154 <__divsf3_pse+0x2c>
    1162:	2b d0       	rcall	.+86     	; 0x11ba <__divsf3_pse+0x92>
    1164:	fe 2f       	mov	r31, r30
    1166:	29 d0       	rcall	.+82     	; 0x11ba <__divsf3_pse+0x92>
    1168:	66 0f       	add	r22, r22
    116a:	77 1f       	adc	r23, r23
    116c:	88 1f       	adc	r24, r24
    116e:	bb 1f       	adc	r27, r27
    1170:	26 17       	cp	r18, r22
    1172:	37 07       	cpc	r19, r23
    1174:	48 07       	cpc	r20, r24
    1176:	ab 07       	cpc	r26, r27
    1178:	b0 e8       	ldi	r27, 0x80	; 128
    117a:	09 f0       	breq	.+2      	; 0x117e <__divsf3_pse+0x56>
    117c:	bb 0b       	sbc	r27, r27
    117e:	80 2d       	mov	r24, r0
    1180:	bf 01       	movw	r22, r30
    1182:	ff 27       	eor	r31, r31
    1184:	93 58       	subi	r25, 0x83	; 131
    1186:	5f 4f       	sbci	r21, 0xFF	; 255
    1188:	3a f0       	brmi	.+14     	; 0x1198 <__divsf3_pse+0x70>
    118a:	9e 3f       	cpi	r25, 0xFE	; 254
    118c:	51 05       	cpc	r21, r1
    118e:	78 f0       	brcs	.+30     	; 0x11ae <__divsf3_pse+0x86>
    1190:	0c 94 5b 09 	jmp	0x12b6	; 0x12b6 <__fp_inf>
    1194:	0c 94 a6 09 	jmp	0x134c	; 0x134c <__fp_szero>
    1198:	5f 3f       	cpi	r21, 0xFF	; 255
    119a:	e4 f3       	brlt	.-8      	; 0x1194 <__divsf3_pse+0x6c>
    119c:	98 3e       	cpi	r25, 0xE8	; 232
    119e:	d4 f3       	brlt	.-12     	; 0x1194 <__divsf3_pse+0x6c>
    11a0:	86 95       	lsr	r24
    11a2:	77 95       	ror	r23
    11a4:	67 95       	ror	r22
    11a6:	b7 95       	ror	r27
    11a8:	f7 95       	ror	r31
    11aa:	9f 5f       	subi	r25, 0xFF	; 255
    11ac:	c9 f7       	brne	.-14     	; 0x11a0 <__divsf3_pse+0x78>
    11ae:	88 0f       	add	r24, r24
    11b0:	91 1d       	adc	r25, r1
    11b2:	96 95       	lsr	r25
    11b4:	87 95       	ror	r24
    11b6:	97 f9       	bld	r25, 7
    11b8:	08 95       	ret
    11ba:	e1 e0       	ldi	r30, 0x01	; 1
    11bc:	66 0f       	add	r22, r22
    11be:	77 1f       	adc	r23, r23
    11c0:	88 1f       	adc	r24, r24
    11c2:	bb 1f       	adc	r27, r27
    11c4:	62 17       	cp	r22, r18
    11c6:	73 07       	cpc	r23, r19
    11c8:	84 07       	cpc	r24, r20
    11ca:	ba 07       	cpc	r27, r26
    11cc:	20 f0       	brcs	.+8      	; 0x11d6 <__divsf3_pse+0xae>
    11ce:	62 1b       	sub	r22, r18
    11d0:	73 0b       	sbc	r23, r19
    11d2:	84 0b       	sbc	r24, r20
    11d4:	ba 0b       	sbc	r27, r26
    11d6:	ee 1f       	adc	r30, r30
    11d8:	88 f7       	brcc	.-30     	; 0x11bc <__divsf3_pse+0x94>
    11da:	e0 95       	com	r30
    11dc:	08 95       	ret

000011de <__fixunssfsi>:
    11de:	0e 94 8b 09 	call	0x1316	; 0x1316 <__fp_splitA>
    11e2:	88 f0       	brcs	.+34     	; 0x1206 <__fixunssfsi+0x28>
    11e4:	9f 57       	subi	r25, 0x7F	; 127
    11e6:	98 f0       	brcs	.+38     	; 0x120e <__fixunssfsi+0x30>
    11e8:	b9 2f       	mov	r27, r25
    11ea:	99 27       	eor	r25, r25
    11ec:	b7 51       	subi	r27, 0x17	; 23
    11ee:	b0 f0       	brcs	.+44     	; 0x121c <__fixunssfsi+0x3e>
    11f0:	e1 f0       	breq	.+56     	; 0x122a <__fixunssfsi+0x4c>
    11f2:	66 0f       	add	r22, r22
    11f4:	77 1f       	adc	r23, r23
    11f6:	88 1f       	adc	r24, r24
    11f8:	99 1f       	adc	r25, r25
    11fa:	1a f0       	brmi	.+6      	; 0x1202 <__fixunssfsi+0x24>
    11fc:	ba 95       	dec	r27
    11fe:	c9 f7       	brne	.-14     	; 0x11f2 <__fixunssfsi+0x14>
    1200:	14 c0       	rjmp	.+40     	; 0x122a <__fixunssfsi+0x4c>
    1202:	b1 30       	cpi	r27, 0x01	; 1
    1204:	91 f0       	breq	.+36     	; 0x122a <__fixunssfsi+0x4c>
    1206:	0e 94 a5 09 	call	0x134a	; 0x134a <__fp_zero>
    120a:	b1 e0       	ldi	r27, 0x01	; 1
    120c:	08 95       	ret
    120e:	0c 94 a5 09 	jmp	0x134a	; 0x134a <__fp_zero>
    1212:	67 2f       	mov	r22, r23
    1214:	78 2f       	mov	r23, r24
    1216:	88 27       	eor	r24, r24
    1218:	b8 5f       	subi	r27, 0xF8	; 248
    121a:	39 f0       	breq	.+14     	; 0x122a <__fixunssfsi+0x4c>
    121c:	b9 3f       	cpi	r27, 0xF9	; 249
    121e:	cc f3       	brlt	.-14     	; 0x1212 <__fixunssfsi+0x34>
    1220:	86 95       	lsr	r24
    1222:	77 95       	ror	r23
    1224:	67 95       	ror	r22
    1226:	b3 95       	inc	r27
    1228:	d9 f7       	brne	.-10     	; 0x1220 <__fixunssfsi+0x42>
    122a:	3e f4       	brtc	.+14     	; 0x123a <__fixunssfsi+0x5c>
    122c:	90 95       	com	r25
    122e:	80 95       	com	r24
    1230:	70 95       	com	r23
    1232:	61 95       	neg	r22
    1234:	7f 4f       	sbci	r23, 0xFF	; 255
    1236:	8f 4f       	sbci	r24, 0xFF	; 255
    1238:	9f 4f       	sbci	r25, 0xFF	; 255
    123a:	08 95       	ret

0000123c <__floatunsisf>:
    123c:	e8 94       	clt
    123e:	09 c0       	rjmp	.+18     	; 0x1252 <__floatsisf+0x12>

00001240 <__floatsisf>:
    1240:	97 fb       	bst	r25, 7
    1242:	3e f4       	brtc	.+14     	; 0x1252 <__floatsisf+0x12>
    1244:	90 95       	com	r25
    1246:	80 95       	com	r24
    1248:	70 95       	com	r23
    124a:	61 95       	neg	r22
    124c:	7f 4f       	sbci	r23, 0xFF	; 255
    124e:	8f 4f       	sbci	r24, 0xFF	; 255
    1250:	9f 4f       	sbci	r25, 0xFF	; 255
    1252:	99 23       	and	r25, r25
    1254:	a9 f0       	breq	.+42     	; 0x1280 <__floatsisf+0x40>
    1256:	f9 2f       	mov	r31, r25
    1258:	96 e9       	ldi	r25, 0x96	; 150
    125a:	bb 27       	eor	r27, r27
    125c:	93 95       	inc	r25
    125e:	f6 95       	lsr	r31
    1260:	87 95       	ror	r24
    1262:	77 95       	ror	r23
    1264:	67 95       	ror	r22
    1266:	b7 95       	ror	r27
    1268:	f1 11       	cpse	r31, r1
    126a:	f8 cf       	rjmp	.-16     	; 0x125c <__floatsisf+0x1c>
    126c:	fa f4       	brpl	.+62     	; 0x12ac <__floatsisf+0x6c>
    126e:	bb 0f       	add	r27, r27
    1270:	11 f4       	brne	.+4      	; 0x1276 <__floatsisf+0x36>
    1272:	60 ff       	sbrs	r22, 0
    1274:	1b c0       	rjmp	.+54     	; 0x12ac <__floatsisf+0x6c>
    1276:	6f 5f       	subi	r22, 0xFF	; 255
    1278:	7f 4f       	sbci	r23, 0xFF	; 255
    127a:	8f 4f       	sbci	r24, 0xFF	; 255
    127c:	9f 4f       	sbci	r25, 0xFF	; 255
    127e:	16 c0       	rjmp	.+44     	; 0x12ac <__floatsisf+0x6c>
    1280:	88 23       	and	r24, r24
    1282:	11 f0       	breq	.+4      	; 0x1288 <__floatsisf+0x48>
    1284:	96 e9       	ldi	r25, 0x96	; 150
    1286:	11 c0       	rjmp	.+34     	; 0x12aa <__floatsisf+0x6a>
    1288:	77 23       	and	r23, r23
    128a:	21 f0       	breq	.+8      	; 0x1294 <__floatsisf+0x54>
    128c:	9e e8       	ldi	r25, 0x8E	; 142
    128e:	87 2f       	mov	r24, r23
    1290:	76 2f       	mov	r23, r22
    1292:	05 c0       	rjmp	.+10     	; 0x129e <__floatsisf+0x5e>
    1294:	66 23       	and	r22, r22
    1296:	71 f0       	breq	.+28     	; 0x12b4 <__floatsisf+0x74>
    1298:	96 e8       	ldi	r25, 0x86	; 134
    129a:	86 2f       	mov	r24, r22
    129c:	70 e0       	ldi	r23, 0x00	; 0
    129e:	60 e0       	ldi	r22, 0x00	; 0
    12a0:	2a f0       	brmi	.+10     	; 0x12ac <__floatsisf+0x6c>
    12a2:	9a 95       	dec	r25
    12a4:	66 0f       	add	r22, r22
    12a6:	77 1f       	adc	r23, r23
    12a8:	88 1f       	adc	r24, r24
    12aa:	da f7       	brpl	.-10     	; 0x12a2 <__floatsisf+0x62>
    12ac:	88 0f       	add	r24, r24
    12ae:	96 95       	lsr	r25
    12b0:	87 95       	ror	r24
    12b2:	97 f9       	bld	r25, 7
    12b4:	08 95       	ret

000012b6 <__fp_inf>:
    12b6:	97 f9       	bld	r25, 7
    12b8:	9f 67       	ori	r25, 0x7F	; 127
    12ba:	80 e8       	ldi	r24, 0x80	; 128
    12bc:	70 e0       	ldi	r23, 0x00	; 0
    12be:	60 e0       	ldi	r22, 0x00	; 0
    12c0:	08 95       	ret

000012c2 <__fp_nan>:
    12c2:	9f ef       	ldi	r25, 0xFF	; 255
    12c4:	80 ec       	ldi	r24, 0xC0	; 192
    12c6:	08 95       	ret

000012c8 <__fp_pscA>:
    12c8:	00 24       	eor	r0, r0
    12ca:	0a 94       	dec	r0
    12cc:	16 16       	cp	r1, r22
    12ce:	17 06       	cpc	r1, r23
    12d0:	18 06       	cpc	r1, r24
    12d2:	09 06       	cpc	r0, r25
    12d4:	08 95       	ret

000012d6 <__fp_pscB>:
    12d6:	00 24       	eor	r0, r0
    12d8:	0a 94       	dec	r0
    12da:	12 16       	cp	r1, r18
    12dc:	13 06       	cpc	r1, r19
    12de:	14 06       	cpc	r1, r20
    12e0:	05 06       	cpc	r0, r21
    12e2:	08 95       	ret

000012e4 <__fp_round>:
    12e4:	09 2e       	mov	r0, r25
    12e6:	03 94       	inc	r0
    12e8:	00 0c       	add	r0, r0
    12ea:	11 f4       	brne	.+4      	; 0x12f0 <__fp_round+0xc>
    12ec:	88 23       	and	r24, r24
    12ee:	52 f0       	brmi	.+20     	; 0x1304 <__fp_round+0x20>
    12f0:	bb 0f       	add	r27, r27
    12f2:	40 f4       	brcc	.+16     	; 0x1304 <__fp_round+0x20>
    12f4:	bf 2b       	or	r27, r31
    12f6:	11 f4       	brne	.+4      	; 0x12fc <__fp_round+0x18>
    12f8:	60 ff       	sbrs	r22, 0
    12fa:	04 c0       	rjmp	.+8      	; 0x1304 <__fp_round+0x20>
    12fc:	6f 5f       	subi	r22, 0xFF	; 255
    12fe:	7f 4f       	sbci	r23, 0xFF	; 255
    1300:	8f 4f       	sbci	r24, 0xFF	; 255
    1302:	9f 4f       	sbci	r25, 0xFF	; 255
    1304:	08 95       	ret

00001306 <__fp_split3>:
    1306:	57 fd       	sbrc	r21, 7
    1308:	90 58       	subi	r25, 0x80	; 128
    130a:	44 0f       	add	r20, r20
    130c:	55 1f       	adc	r21, r21
    130e:	59 f0       	breq	.+22     	; 0x1326 <__fp_splitA+0x10>
    1310:	5f 3f       	cpi	r21, 0xFF	; 255
    1312:	71 f0       	breq	.+28     	; 0x1330 <__fp_splitA+0x1a>
    1314:	47 95       	ror	r20

00001316 <__fp_splitA>:
    1316:	88 0f       	add	r24, r24
    1318:	97 fb       	bst	r25, 7
    131a:	99 1f       	adc	r25, r25
    131c:	61 f0       	breq	.+24     	; 0x1336 <__fp_splitA+0x20>
    131e:	9f 3f       	cpi	r25, 0xFF	; 255
    1320:	79 f0       	breq	.+30     	; 0x1340 <__fp_splitA+0x2a>
    1322:	87 95       	ror	r24
    1324:	08 95       	ret
    1326:	12 16       	cp	r1, r18
    1328:	13 06       	cpc	r1, r19
    132a:	14 06       	cpc	r1, r20
    132c:	55 1f       	adc	r21, r21
    132e:	f2 cf       	rjmp	.-28     	; 0x1314 <__fp_split3+0xe>
    1330:	46 95       	lsr	r20
    1332:	f1 df       	rcall	.-30     	; 0x1316 <__fp_splitA>
    1334:	08 c0       	rjmp	.+16     	; 0x1346 <__fp_splitA+0x30>
    1336:	16 16       	cp	r1, r22
    1338:	17 06       	cpc	r1, r23
    133a:	18 06       	cpc	r1, r24
    133c:	99 1f       	adc	r25, r25
    133e:	f1 cf       	rjmp	.-30     	; 0x1322 <__fp_splitA+0xc>
    1340:	86 95       	lsr	r24
    1342:	71 05       	cpc	r23, r1
    1344:	61 05       	cpc	r22, r1
    1346:	08 94       	sec
    1348:	08 95       	ret

0000134a <__fp_zero>:
    134a:	e8 94       	clt

0000134c <__fp_szero>:
    134c:	bb 27       	eor	r27, r27
    134e:	66 27       	eor	r22, r22
    1350:	77 27       	eor	r23, r23
    1352:	cb 01       	movw	r24, r22
    1354:	97 f9       	bld	r25, 7
    1356:	08 95       	ret

00001358 <__mulsf3>:
    1358:	0e 94 bf 09 	call	0x137e	; 0x137e <__mulsf3x>
    135c:	0c 94 72 09 	jmp	0x12e4	; 0x12e4 <__fp_round>
    1360:	0e 94 64 09 	call	0x12c8	; 0x12c8 <__fp_pscA>
    1364:	38 f0       	brcs	.+14     	; 0x1374 <__mulsf3+0x1c>
    1366:	0e 94 6b 09 	call	0x12d6	; 0x12d6 <__fp_pscB>
    136a:	20 f0       	brcs	.+8      	; 0x1374 <__mulsf3+0x1c>
    136c:	95 23       	and	r25, r21
    136e:	11 f0       	breq	.+4      	; 0x1374 <__mulsf3+0x1c>
    1370:	0c 94 5b 09 	jmp	0x12b6	; 0x12b6 <__fp_inf>
    1374:	0c 94 61 09 	jmp	0x12c2	; 0x12c2 <__fp_nan>
    1378:	11 24       	eor	r1, r1
    137a:	0c 94 a6 09 	jmp	0x134c	; 0x134c <__fp_szero>

0000137e <__mulsf3x>:
    137e:	0e 94 83 09 	call	0x1306	; 0x1306 <__fp_split3>
    1382:	70 f3       	brcs	.-36     	; 0x1360 <__mulsf3+0x8>

00001384 <__mulsf3_pse>:
    1384:	95 9f       	mul	r25, r21
    1386:	c1 f3       	breq	.-16     	; 0x1378 <__mulsf3+0x20>
    1388:	95 0f       	add	r25, r21
    138a:	50 e0       	ldi	r21, 0x00	; 0
    138c:	55 1f       	adc	r21, r21
    138e:	62 9f       	mul	r22, r18
    1390:	f0 01       	movw	r30, r0
    1392:	72 9f       	mul	r23, r18
    1394:	bb 27       	eor	r27, r27
    1396:	f0 0d       	add	r31, r0
    1398:	b1 1d       	adc	r27, r1
    139a:	63 9f       	mul	r22, r19
    139c:	aa 27       	eor	r26, r26
    139e:	f0 0d       	add	r31, r0
    13a0:	b1 1d       	adc	r27, r1
    13a2:	aa 1f       	adc	r26, r26
    13a4:	64 9f       	mul	r22, r20
    13a6:	66 27       	eor	r22, r22
    13a8:	b0 0d       	add	r27, r0
    13aa:	a1 1d       	adc	r26, r1
    13ac:	66 1f       	adc	r22, r22
    13ae:	82 9f       	mul	r24, r18
    13b0:	22 27       	eor	r18, r18
    13b2:	b0 0d       	add	r27, r0
    13b4:	a1 1d       	adc	r26, r1
    13b6:	62 1f       	adc	r22, r18
    13b8:	73 9f       	mul	r23, r19
    13ba:	b0 0d       	add	r27, r0
    13bc:	a1 1d       	adc	r26, r1
    13be:	62 1f       	adc	r22, r18
    13c0:	83 9f       	mul	r24, r19
    13c2:	a0 0d       	add	r26, r0
    13c4:	61 1d       	adc	r22, r1
    13c6:	22 1f       	adc	r18, r18
    13c8:	74 9f       	mul	r23, r20
    13ca:	33 27       	eor	r19, r19
    13cc:	a0 0d       	add	r26, r0
    13ce:	61 1d       	adc	r22, r1
    13d0:	23 1f       	adc	r18, r19
    13d2:	84 9f       	mul	r24, r20
    13d4:	60 0d       	add	r22, r0
    13d6:	21 1d       	adc	r18, r1
    13d8:	82 2f       	mov	r24, r18
    13da:	76 2f       	mov	r23, r22
    13dc:	6a 2f       	mov	r22, r26
    13de:	11 24       	eor	r1, r1
    13e0:	9f 57       	subi	r25, 0x7F	; 127
    13e2:	50 40       	sbci	r21, 0x00	; 0
    13e4:	9a f0       	brmi	.+38     	; 0x140c <__mulsf3_pse+0x88>
    13e6:	f1 f0       	breq	.+60     	; 0x1424 <__mulsf3_pse+0xa0>
    13e8:	88 23       	and	r24, r24
    13ea:	4a f0       	brmi	.+18     	; 0x13fe <__mulsf3_pse+0x7a>
    13ec:	ee 0f       	add	r30, r30
    13ee:	ff 1f       	adc	r31, r31
    13f0:	bb 1f       	adc	r27, r27
    13f2:	66 1f       	adc	r22, r22
    13f4:	77 1f       	adc	r23, r23
    13f6:	88 1f       	adc	r24, r24
    13f8:	91 50       	subi	r25, 0x01	; 1
    13fa:	50 40       	sbci	r21, 0x00	; 0
    13fc:	a9 f7       	brne	.-22     	; 0x13e8 <__mulsf3_pse+0x64>
    13fe:	9e 3f       	cpi	r25, 0xFE	; 254
    1400:	51 05       	cpc	r21, r1
    1402:	80 f0       	brcs	.+32     	; 0x1424 <__mulsf3_pse+0xa0>
    1404:	0c 94 5b 09 	jmp	0x12b6	; 0x12b6 <__fp_inf>
    1408:	0c 94 a6 09 	jmp	0x134c	; 0x134c <__fp_szero>
    140c:	5f 3f       	cpi	r21, 0xFF	; 255
    140e:	e4 f3       	brlt	.-8      	; 0x1408 <__mulsf3_pse+0x84>
    1410:	98 3e       	cpi	r25, 0xE8	; 232
    1412:	d4 f3       	brlt	.-12     	; 0x1408 <__mulsf3_pse+0x84>
    1414:	86 95       	lsr	r24
    1416:	77 95       	ror	r23
    1418:	67 95       	ror	r22
    141a:	b7 95       	ror	r27
    141c:	f7 95       	ror	r31
    141e:	e7 95       	ror	r30
    1420:	9f 5f       	subi	r25, 0xFF	; 255
    1422:	c1 f7       	brne	.-16     	; 0x1414 <__mulsf3_pse+0x90>
    1424:	fe 2b       	or	r31, r30
    1426:	88 0f       	add	r24, r24
    1428:	91 1d       	adc	r25, r1
    142a:	96 95       	lsr	r25
    142c:	87 95       	ror	r24
    142e:	97 f9       	bld	r25, 7
    1430:	08 95       	ret

00001432 <__divmodhi4>:
    1432:	97 fb       	bst	r25, 7
    1434:	07 2e       	mov	r0, r23
    1436:	16 f4       	brtc	.+4      	; 0x143c <__divmodhi4+0xa>
    1438:	00 94       	com	r0
    143a:	07 d0       	rcall	.+14     	; 0x144a <__divmodhi4_neg1>
    143c:	77 fd       	sbrc	r23, 7
    143e:	09 d0       	rcall	.+18     	; 0x1452 <__divmodhi4_neg2>
    1440:	0e 94 33 0a 	call	0x1466	; 0x1466 <__udivmodhi4>
    1444:	07 fc       	sbrc	r0, 7
    1446:	05 d0       	rcall	.+10     	; 0x1452 <__divmodhi4_neg2>
    1448:	3e f4       	brtc	.+14     	; 0x1458 <__divmodhi4_exit>

0000144a <__divmodhi4_neg1>:
    144a:	90 95       	com	r25
    144c:	81 95       	neg	r24
    144e:	9f 4f       	sbci	r25, 0xFF	; 255
    1450:	08 95       	ret

00001452 <__divmodhi4_neg2>:
    1452:	70 95       	com	r23
    1454:	61 95       	neg	r22
    1456:	7f 4f       	sbci	r23, 0xFF	; 255

00001458 <__divmodhi4_exit>:
    1458:	08 95       	ret

0000145a <__tablejump2__>:
    145a:	ee 0f       	add	r30, r30
    145c:	ff 1f       	adc	r31, r31
    145e:	05 90       	lpm	r0, Z+
    1460:	f4 91       	lpm	r31, Z
    1462:	e0 2d       	mov	r30, r0
    1464:	09 94       	ijmp

00001466 <__udivmodhi4>:
    1466:	aa 1b       	sub	r26, r26
    1468:	bb 1b       	sub	r27, r27
    146a:	51 e1       	ldi	r21, 0x11	; 17
    146c:	07 c0       	rjmp	.+14     	; 0x147c <__udivmodhi4_ep>

0000146e <__udivmodhi4_loop>:
    146e:	aa 1f       	adc	r26, r26
    1470:	bb 1f       	adc	r27, r27
    1472:	a6 17       	cp	r26, r22
    1474:	b7 07       	cpc	r27, r23
    1476:	10 f0       	brcs	.+4      	; 0x147c <__udivmodhi4_ep>
    1478:	a6 1b       	sub	r26, r22
    147a:	b7 0b       	sbc	r27, r23

0000147c <__udivmodhi4_ep>:
    147c:	88 1f       	adc	r24, r24
    147e:	99 1f       	adc	r25, r25
    1480:	5a 95       	dec	r21
    1482:	a9 f7       	brne	.-22     	; 0x146e <__udivmodhi4_loop>
    1484:	80 95       	com	r24
    1486:	90 95       	com	r25
    1488:	bc 01       	movw	r22, r24
    148a:	cd 01       	movw	r24, r26
    148c:	08 95       	ret

0000148e <_exit>:
    148e:	f8 94       	cli

00001490 <__stop_program>:
    1490:	ff cf       	rjmp	.-2      	; 0x1490 <__stop_program>
